
dupadupamata6czerwiec.elf:     file format elf32-littlearm

Sections:
Idx Name          Size      VMA       LMA       File off  Algn
  0 .isr_vector   0000010c  08000000  08000000  00010000  2**0
                  CONTENTS, ALLOC, LOAD, READONLY, DATA
  1 .text         00004af0  0800010c  0800010c  0001010c  2**2
                  CONTENTS, ALLOC, LOAD, READONLY, CODE
  2 .rodata       00000068  08004bfc  08004bfc  00014bfc  2**0
                  CONTENTS, ALLOC, LOAD, READONLY, DATA
  3 .ARM.extab    00000000  08004c64  08004c64  000201c4  2**0
                  CONTENTS
  4 .ARM          00000000  08004c64  08004c64  000201c4  2**0
                  CONTENTS
  5 .preinit_array 00000000  08004c64  08004c64  000201c4  2**0
                  CONTENTS, ALLOC, LOAD, DATA
  6 .init_array   00000004  08004c64  08004c64  00014c64  2**2
                  CONTENTS, ALLOC, LOAD, DATA
  7 .fini_array   00000004  08004c68  08004c68  00014c68  2**2
                  CONTENTS, ALLOC, LOAD, DATA
  8 .data         000001c4  20000000  08004c6c  00020000  2**2
                  CONTENTS, ALLOC, LOAD, DATA
  9 .bss          00000c8c  200001c4  08004e30  000201c4  2**2
                  ALLOC
 10 ._user_heap_stack 00000600  20000e50  08004e30  00020e50  2**0
                  ALLOC
 11 .ARM.attributes 00000029  00000000  00000000  000201c4  2**0
                  CONTENTS, READONLY
 12 .comment      00000050  00000000  00000000  000201ed  2**0
                  CONTENTS, READONLY
 13 .debug_frame  000002a0  00000000  00000000  00020240  2**2
                  CONTENTS, READONLY, DEBUGGING, OCTETS

Disassembly of section .text:

0800010c <__do_global_dtors_aux>:
 800010c:	b510      	push	{r4, lr}
 800010e:	4c05      	ldr	r4, [pc, #20]	; (8000124 <__do_global_dtors_aux+0x18>)
 8000110:	7823      	ldrb	r3, [r4, #0]
 8000112:	b933      	cbnz	r3, 8000122 <__do_global_dtors_aux+0x16>
 8000114:	4b04      	ldr	r3, [pc, #16]	; (8000128 <__do_global_dtors_aux+0x1c>)
 8000116:	b113      	cbz	r3, 800011e <__do_global_dtors_aux+0x12>
 8000118:	4804      	ldr	r0, [pc, #16]	; (800012c <__do_global_dtors_aux+0x20>)
 800011a:	f3af 8000 	nop.w
 800011e:	2301      	movs	r3, #1
 8000120:	7023      	strb	r3, [r4, #0]
 8000122:	bd10      	pop	{r4, pc}
 8000124:	200001c4 	.word	0x200001c4
 8000128:	00000000 	.word	0x00000000
 800012c:	08004be4 	.word	0x08004be4

08000130 <frame_dummy>:
 8000130:	b508      	push	{r3, lr}
 8000132:	4b03      	ldr	r3, [pc, #12]	; (8000140 <frame_dummy+0x10>)
 8000134:	b11b      	cbz	r3, 800013e <frame_dummy+0xe>
 8000136:	4903      	ldr	r1, [pc, #12]	; (8000144 <frame_dummy+0x14>)
 8000138:	4803      	ldr	r0, [pc, #12]	; (8000148 <frame_dummy+0x18>)
 800013a:	f3af 8000 	nop.w
 800013e:	bd08      	pop	{r3, pc}
 8000140:	00000000 	.word	0x00000000
 8000144:	200001c8 	.word	0x200001c8
 8000148:	08004be4 	.word	0x08004be4

0800014c <GetLedSection>:
 800014c:	4b03      	ldr	r3, [pc, #12]	; (800015c <GetLedSection+0x10>)
 800014e:	eb01 0141 	add.w	r1, r1, r1, lsl #1
 8000152:	681b      	ldr	r3, [r3, #0]
 8000154:	f853 0030 	ldr.w	r0, [r3, r0, lsl #3]
 8000158:	4408      	add	r0, r1
 800015a:	4770      	bx	lr
 800015c:	200001e0 	.word	0x200001e0

08000160 <Initialize>:
 8000160:	b538      	push	{r3, r4, r5, lr}
 8000162:	00c5      	lsls	r5, r0, #3
 8000164:	4604      	mov	r4, r0
 8000166:	4628      	mov	r0, r5
 8000168:	f004 fc5c 	bl	8004a24 <malloc>
 800016c:	4b04      	ldr	r3, [pc, #16]	; (8000180 <Initialize+0x20>)
 800016e:	6018      	str	r0, [r3, #0]
 8000170:	4628      	mov	r0, r5
 8000172:	f004 fc57 	bl	8004a24 <malloc>
 8000176:	4b03      	ldr	r3, [pc, #12]	; (8000184 <Initialize+0x24>)
 8000178:	6018      	str	r0, [r3, #0]
 800017a:	4b03      	ldr	r3, [pc, #12]	; (8000188 <Initialize+0x28>)
 800017c:	701c      	strb	r4, [r3, #0]
 800017e:	bd38      	pop	{r3, r4, r5, pc}
 8000180:	200001e0 	.word	0x200001e0
 8000184:	200001e4 	.word	0x200001e4
 8000188:	200001e8 	.word	0x200001e8

0800018c <InitializeChannel>:
 800018c:	e92d 4ff8 	stmdb	sp!, {r3, r4, r5, r6, r7, r8, r9, sl, fp, lr}
 8000190:	eb01 0641 	add.w	r6, r1, r1, lsl #1
 8000194:	f8df 9048 	ldr.w	r9, [pc, #72]	; 80001e0 <InitializeChannel+0x54>
 8000198:	4605      	mov	r5, r0
 800019a:	00c7      	lsls	r7, r0, #3
 800019c:	4630      	mov	r0, r6
 800019e:	460c      	mov	r4, r1
 80001a0:	f8d9 a000 	ldr.w	sl, [r9]
 80001a4:	f004 fc3e 	bl	8004a24 <malloc>
 80001a8:	f8df 8038 	ldr.w	r8, [pc, #56]	; 80001e4 <InitializeChannel+0x58>
 80001ac:	f84a 0035 	str.w	r0, [sl, r5, lsl #3]
 80001b0:	4630      	mov	r0, r6
 80001b2:	f8d8 b000 	ldr.w	fp, [r8]
 80001b6:	f004 fc35 	bl	8004a24 <malloc>
 80001ba:	f84b 0035 	str.w	r0, [fp, r5, lsl #3]
 80001be:	4632      	mov	r2, r6
 80001c0:	2100      	movs	r1, #0
 80001c2:	f85a 0035 	ldr.w	r0, [sl, r5, lsl #3]
 80001c6:	f004 fc53 	bl	8004a70 <memset>
 80001ca:	f8d9 2000 	ldr.w	r2, [r9]
 80001ce:	f8d8 3000 	ldr.w	r3, [r8]
 80001d2:	443a      	add	r2, r7
 80001d4:	443b      	add	r3, r7
 80001d6:	7114      	strb	r4, [r2, #4]
 80001d8:	711c      	strb	r4, [r3, #4]
 80001da:	e8bd 8ff8 	ldmia.w	sp!, {r3, r4, r5, r6, r7, r8, r9, sl, fp, pc}
 80001de:	bf00      	nop
 80001e0:	200001e0 	.word	0x200001e0
 80001e4:	200001e4 	.word	0x200001e4

080001e8 <FillBuffer>:
 80001e8:	e92d 4ff7 	stmdb	sp!, {r0, r1, r2, r4, r5, r6, r7, r8, r9, sl, fp, lr}
 80001ec:	2600      	movs	r6, #0
 80001ee:	f04f 0805 	mov.w	r8, #5
 80001f2:	9000      	str	r0, [sp, #0]
 80001f4:	f89d 0034 	ldrb.w	r0, [sp, #52]	; 0x34
 80001f8:	9f0c      	ldr	r7, [sp, #48]	; 0x30
 80001fa:	9001      	str	r0, [sp, #4]
 80001fc:	00d2      	lsls	r2, r2, #3
 80001fe:	f8df e0b8 	ldr.w	lr, [pc, #184]	; 80002b8 <FillBuffer+0xd0>
 8000202:	781c      	ldrb	r4, [r3, #0]
 8000204:	f8de 0000 	ldr.w	r0, [lr]
 8000208:	4410      	add	r0, r2
 800020a:	7900      	ldrb	r0, [r0, #4]
 800020c:	4284      	cmp	r4, r0
 800020e:	d251      	bcs.n	80002b4 <FillBuffer+0xcc>
 8000210:	f04f 0c18 	mov.w	ip, #24
 8000214:	f8de 0000 	ldr.w	r0, [lr]
 8000218:	783c      	ldrb	r4, [r7, #0]
 800021a:	f850 9002 	ldr.w	r9, [r0, r2]
 800021e:	7818      	ldrb	r0, [r3, #0]
 8000220:	eb00 0040 	add.w	r0, r0, r0, lsl #1
 8000224:	f819 0000 	ldrb.w	r0, [r9, r0]
 8000228:	4284      	cmp	r4, r0
 800022a:	f04f 0000 	mov.w	r0, #0
 800022e:	d33d      	bcc.n	80002ac <FillBuffer+0xc4>
 8000230:	7038      	strb	r0, [r7, #0]
 8000232:	7818      	ldrb	r0, [r3, #0]
 8000234:	3001      	adds	r0, #1
 8000236:	7018      	strb	r0, [r3, #0]
 8000238:	e7e1      	b.n	80001fe <FillBuffer+0x16>
 800023a:	781d      	ldrb	r5, [r3, #0]
 800023c:	f8df b07c 	ldr.w	fp, [pc, #124]	; 80002bc <FillBuffer+0xd4>
 8000240:	eb05 0545 	add.w	r5, r5, r5, lsl #1
 8000244:	444d      	add	r5, r9
 8000246:	786d      	ldrb	r5, [r5, #1]
 8000248:	eb0b 0bd0 	add.w	fp, fp, r0, lsr #3
 800024c:	eb05 0545 	add.w	r5, r5, r5, lsl #1
 8000250:	f81b 5005 	ldrb.w	r5, [fp, r5]
 8000254:	f004 0b07 	and.w	fp, r4, #7
 8000258:	fbb5 f5f8 	udiv	r5, r5, r8
 800025c:	f1cb 0b07 	rsb	fp, fp, #7
 8000260:	fa45 f50b 	asr.w	r5, r5, fp
 8000264:	f8df b058 	ldr.w	fp, [pc, #88]	; 80002c0 <FillBuffer+0xd8>
 8000268:	f005 0501 	and.w	r5, r5, #1
 800026c:	f81b 5005 	ldrb.w	r5, [fp, r5]
 8000270:	3001      	adds	r0, #1
 8000272:	f8dd b000 	ldr.w	fp, [sp]
 8000276:	b2c0      	uxtb	r0, r0
 8000278:	f82b 5014 	strh.w	r5, [fp, r4, lsl #1]
 800027c:	fbb0 f5fc 	udiv	r5, r0, ip
 8000280:	fb0c 0015 	mls	r0, ip, r5, r0
 8000284:	3401      	adds	r4, #1
 8000286:	b2c0      	uxtb	r0, r0
 8000288:	b2e4      	uxtb	r4, r4
 800028a:	45a2      	cmp	sl, r4
 800028c:	dad5      	bge.n	800023a <FillBuffer+0x52>
 800028e:	7838      	ldrb	r0, [r7, #0]
 8000290:	9c01      	ldr	r4, [sp, #4]
 8000292:	3601      	adds	r6, #1
 8000294:	b2f6      	uxtb	r6, r6
 8000296:	3001      	adds	r0, #1
 8000298:	3118      	adds	r1, #24
 800029a:	b2c0      	uxtb	r0, r0
 800029c:	42a6      	cmp	r6, r4
 800029e:	b2c9      	uxtb	r1, r1
 80002a0:	7038      	strb	r0, [r7, #0]
 80002a2:	d1b7      	bne.n	8000214 <FillBuffer+0x2c>
 80002a4:	2000      	movs	r0, #0
 80002a6:	b003      	add	sp, #12
 80002a8:	e8bd 8ff0 	ldmia.w	sp!, {r4, r5, r6, r7, r8, r9, sl, fp, pc}
 80002ac:	460c      	mov	r4, r1
 80002ae:	f101 0a17 	add.w	sl, r1, #23
 80002b2:	e7ea      	b.n	800028a <FillBuffer+0xa2>
 80002b4:	2001      	movs	r0, #1
 80002b6:	e7f6      	b.n	80002a6 <FillBuffer+0xbe>
 80002b8:	200001e0 	.word	0x200001e0
 80002bc:	08004bfe 	.word	0x08004bfe
 80002c0:	08004bfc 	.word	0x08004bfc

080002c4 <InitializeMemoryForDmaTransaction>:
 80002c4:	e92d 4ff7 	stmdb	sp!, {r0, r1, r2, r4, r5, r6, r7, r8, r9, sl, fp, lr}
 80002c8:	461d      	mov	r5, r3
 80002ca:	2300      	movs	r3, #0
 80002cc:	4614      	mov	r4, r2
 80002ce:	f8dd 8034 	ldr.w	r8, [sp, #52]	; 0x34
 80002d2:	9a0c      	ldr	r2, [sp, #48]	; 0x30
 80002d4:	702b      	strb	r3, [r5, #0]
 80002d6:	f888 3000 	strb.w	r3, [r8]
 80002da:	7013      	strb	r3, [r2, #0]
 80002dc:	4b13      	ldr	r3, [pc, #76]	; (800032c <InitializeMemoryForDmaTransaction+0x68>)
 80002de:	4606      	mov	r6, r0
 80002e0:	681b      	ldr	r3, [r3, #0]
 80002e2:	460f      	mov	r7, r1
 80002e4:	f853 b034 	ldr.w	fp, [r3, r4, lsl #3]
 80002e8:	eb03 02c4 	add.w	r2, r3, r4, lsl #3
 80002ec:	4b10      	ldr	r3, [pc, #64]	; (8000330 <InitializeMemoryForDmaTransaction+0x6c>)
 80002ee:	7912      	ldrb	r2, [r2, #4]
 80002f0:	681b      	ldr	r3, [r3, #0]
 80002f2:	eb02 0942 	add.w	r9, r2, r2, lsl #1
 80002f6:	f853 a034 	ldr.w	sl, [r3, r4, lsl #3]
 80002fa:	464a      	mov	r2, r9
 80002fc:	4651      	mov	r1, sl
 80002fe:	4658      	mov	r0, fp
 8000300:	f004 fb98 	bl	8004a34 <memcmp>
 8000304:	b170      	cbz	r0, 8000324 <InitializeMemoryForDmaTransaction+0x60>
 8000306:	464a      	mov	r2, r9
 8000308:	4659      	mov	r1, fp
 800030a:	4650      	mov	r0, sl
 800030c:	f004 fba2 	bl	8004a54 <memcpy>
 8000310:	9b0c      	ldr	r3, [sp, #48]	; 0x30
 8000312:	4622      	mov	r2, r4
 8000314:	9300      	str	r3, [sp, #0]
 8000316:	4630      	mov	r0, r6
 8000318:	4643      	mov	r3, r8
 800031a:	7829      	ldrb	r1, [r5, #0]
 800031c:	9701      	str	r7, [sp, #4]
 800031e:	f7ff ff63 	bl	80001e8 <FillBuffer>
 8000322:	2001      	movs	r0, #1
 8000324:	b003      	add	sp, #12
 8000326:	e8bd 8ff0 	ldmia.w	sp!, {r4, r5, r6, r7, r8, r9, sl, fp, pc}
 800032a:	bf00      	nop
 800032c:	200001e0 	.word	0x200001e0
 8000330:	200001e4 	.word	0x200001e4

08000334 <HandleDmaCircularMode>:
 8000334:	b573      	push	{r0, r1, r4, r5, r6, lr}
 8000336:	461d      	mov	r5, r3
 8000338:	9b06      	ldr	r3, [sp, #24]
 800033a:	084e      	lsrs	r6, r1, #1
 800033c:	9300      	str	r3, [sp, #0]
 800033e:	460c      	mov	r4, r1
 8000340:	9b07      	ldr	r3, [sp, #28]
 8000342:	7829      	ldrb	r1, [r5, #0]
 8000344:	9601      	str	r6, [sp, #4]
 8000346:	f7ff ff4f 	bl	80001e8 <FillBuffer>
 800034a:	2118      	movs	r1, #24
 800034c:	782a      	ldrb	r2, [r5, #0]
 800034e:	434c      	muls	r4, r1
 8000350:	fb01 2206 	mla	r2, r1, r6, r2
 8000354:	fbb2 f1f4 	udiv	r1, r2, r4
 8000358:	fb04 2411 	mls	r4, r4, r1, r2
 800035c:	702c      	strb	r4, [r5, #0]
 800035e:	b002      	add	sp, #8
 8000360:	bd70      	pop	{r4, r5, r6, pc}
	...

08000364 <HAL_TIM_PWM_PulseFinishedCallback>:
 8000364:	b513      	push	{r0, r1, r4, lr}
 8000366:	4918      	ldr	r1, [pc, #96]	; (80003c8 <HAL_TIM_PWM_PulseFinishedCallback+0x64>)
 8000368:	780a      	ldrb	r2, [r1, #0]
 800036a:	3201      	adds	r2, #1
 800036c:	700a      	strb	r2, [r1, #0]
 800036e:	4917      	ldr	r1, [pc, #92]	; (80003cc <HAL_TIM_PWM_PulseFinishedCallback+0x68>)
 8000370:	780a      	ldrb	r2, [r1, #0]
 8000372:	3201      	adds	r2, #1
 8000374:	700a      	strb	r2, [r1, #0]
 8000376:	4a16      	ldr	r2, [pc, #88]	; (80003d0 <HAL_TIM_PWM_PulseFinishedCallback+0x6c>)
 8000378:	4290      	cmp	r0, r2
 800037a:	d10a      	bne.n	8000392 <HAL_TIM_PWM_PulseFinishedCallback+0x2e>
 800037c:	7f03      	ldrb	r3, [r0, #28]
 800037e:	2b01      	cmp	r3, #1
 8000380:	d114      	bne.n	80003ac <HAL_TIM_PWM_PulseFinishedCallback+0x48>
 8000382:	4c14      	ldr	r4, [pc, #80]	; (80003d4 <HAL_TIM_PWM_PulseFinishedCallback+0x70>)
 8000384:	7822      	ldrb	r2, [r4, #0]
 8000386:	b132      	cbz	r2, 8000396 <HAL_TIM_PWM_PulseFinishedCallback+0x32>
 8000388:	2100      	movs	r1, #0
 800038a:	f002 ff31 	bl	80031f0 <HAL_TIM_PWM_Stop_DMA>
 800038e:	2300      	movs	r3, #0
 8000390:	7023      	strb	r3, [r4, #0]
 8000392:	b002      	add	sp, #8
 8000394:	bd10      	pop	{r4, pc}
 8000396:	2108      	movs	r1, #8
 8000398:	4b0f      	ldr	r3, [pc, #60]	; (80003d8 <HAL_TIM_PWM_PulseFinishedCallback+0x74>)
 800039a:	4810      	ldr	r0, [pc, #64]	; (80003dc <HAL_TIM_PWM_PulseFinishedCallback+0x78>)
 800039c:	9301      	str	r3, [sp, #4]
 800039e:	4b10      	ldr	r3, [pc, #64]	; (80003e0 <HAL_TIM_PWM_PulseFinishedCallback+0x7c>)
 80003a0:	9300      	str	r3, [sp, #0]
 80003a2:	4b10      	ldr	r3, [pc, #64]	; (80003e4 <HAL_TIM_PWM_PulseFinishedCallback+0x80>)
 80003a4:	f7ff ffc6 	bl	8000334 <HandleDmaCircularMode>
 80003a8:	7020      	strb	r0, [r4, #0]
 80003aa:	e7f2      	b.n	8000392 <HAL_TIM_PWM_PulseFinishedCallback+0x2e>
 80003ac:	4c0e      	ldr	r4, [pc, #56]	; (80003e8 <HAL_TIM_PWM_PulseFinishedCallback+0x84>)
 80003ae:	7823      	ldrb	r3, [r4, #0]
 80003b0:	b10b      	cbz	r3, 80003b6 <HAL_TIM_PWM_PulseFinishedCallback+0x52>
 80003b2:	2104      	movs	r1, #4
 80003b4:	e7e9      	b.n	800038a <HAL_TIM_PWM_PulseFinishedCallback+0x26>
 80003b6:	4b0d      	ldr	r3, [pc, #52]	; (80003ec <HAL_TIM_PWM_PulseFinishedCallback+0x88>)
 80003b8:	2201      	movs	r2, #1
 80003ba:	9301      	str	r3, [sp, #4]
 80003bc:	4b0c      	ldr	r3, [pc, #48]	; (80003f0 <HAL_TIM_PWM_PulseFinishedCallback+0x8c>)
 80003be:	2108      	movs	r1, #8
 80003c0:	9300      	str	r3, [sp, #0]
 80003c2:	480c      	ldr	r0, [pc, #48]	; (80003f4 <HAL_TIM_PWM_PulseFinishedCallback+0x90>)
 80003c4:	4b0c      	ldr	r3, [pc, #48]	; (80003f8 <HAL_TIM_PWM_PulseFinishedCallback+0x94>)
 80003c6:	e7ed      	b.n	80003a4 <HAL_TIM_PWM_PulseFinishedCallback+0x40>
 80003c8:	20000215 	.word	0x20000215
 80003cc:	20000216 	.word	0x20000216
 80003d0:	2000061c 	.word	0x2000061c
 80003d4:	200001e9 	.word	0x200001e9
 80003d8:	2000039a 	.word	0x2000039a
 80003dc:	20000218 	.word	0x20000218
 80003e0:	20000399 	.word	0x20000399
 80003e4:	20000398 	.word	0x20000398
 80003e8:	200001ea 	.word	0x200001ea
 80003ec:	2000051e 	.word	0x2000051e
 80003f0:	2000051d 	.word	0x2000051d
 80003f4:	2000039c 	.word	0x2000039c
 80003f8:	2000051c 	.word	0x2000051c

080003fc <HAL_TIM_PWM_PulseFinishedHalfCpltCallback>:
 80003fc:	b513      	push	{r0, r1, r4, lr}
 80003fe:	4918      	ldr	r1, [pc, #96]	; (8000460 <HAL_TIM_PWM_PulseFinishedHalfCpltCallback+0x64>)
 8000400:	780a      	ldrb	r2, [r1, #0]
 8000402:	3201      	adds	r2, #1
 8000404:	700a      	strb	r2, [r1, #0]
 8000406:	4917      	ldr	r1, [pc, #92]	; (8000464 <HAL_TIM_PWM_PulseFinishedHalfCpltCallback+0x68>)
 8000408:	780a      	ldrb	r2, [r1, #0]
 800040a:	3201      	adds	r2, #1
 800040c:	700a      	strb	r2, [r1, #0]
 800040e:	4a16      	ldr	r2, [pc, #88]	; (8000468 <HAL_TIM_PWM_PulseFinishedHalfCpltCallback+0x6c>)
 8000410:	4290      	cmp	r0, r2
 8000412:	d10a      	bne.n	800042a <HAL_TIM_PWM_PulseFinishedHalfCpltCallback+0x2e>
 8000414:	7f03      	ldrb	r3, [r0, #28]
 8000416:	2b01      	cmp	r3, #1
 8000418:	d114      	bne.n	8000444 <HAL_TIM_PWM_PulseFinishedHalfCpltCallback+0x48>
 800041a:	4c14      	ldr	r4, [pc, #80]	; (800046c <HAL_TIM_PWM_PulseFinishedHalfCpltCallback+0x70>)
 800041c:	7822      	ldrb	r2, [r4, #0]
 800041e:	b132      	cbz	r2, 800042e <HAL_TIM_PWM_PulseFinishedHalfCpltCallback+0x32>
 8000420:	2100      	movs	r1, #0
 8000422:	f002 fee5 	bl	80031f0 <HAL_TIM_PWM_Stop_DMA>
 8000426:	2300      	movs	r3, #0
 8000428:	7023      	strb	r3, [r4, #0]
 800042a:	b002      	add	sp, #8
 800042c:	bd10      	pop	{r4, pc}
 800042e:	2108      	movs	r1, #8
 8000430:	4b0f      	ldr	r3, [pc, #60]	; (8000470 <HAL_TIM_PWM_PulseFinishedHalfCpltCallback+0x74>)
 8000432:	4810      	ldr	r0, [pc, #64]	; (8000474 <HAL_TIM_PWM_PulseFinishedHalfCpltCallback+0x78>)
 8000434:	9301      	str	r3, [sp, #4]
 8000436:	4b10      	ldr	r3, [pc, #64]	; (8000478 <HAL_TIM_PWM_PulseFinishedHalfCpltCallback+0x7c>)
 8000438:	9300      	str	r3, [sp, #0]
 800043a:	4b10      	ldr	r3, [pc, #64]	; (800047c <HAL_TIM_PWM_PulseFinishedHalfCpltCallback+0x80>)
 800043c:	f7ff ff7a 	bl	8000334 <HandleDmaCircularMode>
 8000440:	7020      	strb	r0, [r4, #0]
 8000442:	e7f2      	b.n	800042a <HAL_TIM_PWM_PulseFinishedHalfCpltCallback+0x2e>
 8000444:	4c0e      	ldr	r4, [pc, #56]	; (8000480 <HAL_TIM_PWM_PulseFinishedHalfCpltCallback+0x84>)
 8000446:	7823      	ldrb	r3, [r4, #0]
 8000448:	b10b      	cbz	r3, 800044e <HAL_TIM_PWM_PulseFinishedHalfCpltCallback+0x52>
 800044a:	2104      	movs	r1, #4
 800044c:	e7e9      	b.n	8000422 <HAL_TIM_PWM_PulseFinishedHalfCpltCallback+0x26>
 800044e:	4b0d      	ldr	r3, [pc, #52]	; (8000484 <HAL_TIM_PWM_PulseFinishedHalfCpltCallback+0x88>)
 8000450:	2201      	movs	r2, #1
 8000452:	9301      	str	r3, [sp, #4]
 8000454:	4b0c      	ldr	r3, [pc, #48]	; (8000488 <HAL_TIM_PWM_PulseFinishedHalfCpltCallback+0x8c>)
 8000456:	2108      	movs	r1, #8
 8000458:	9300      	str	r3, [sp, #0]
 800045a:	480c      	ldr	r0, [pc, #48]	; (800048c <HAL_TIM_PWM_PulseFinishedHalfCpltCallback+0x90>)
 800045c:	4b0c      	ldr	r3, [pc, #48]	; (8000490 <HAL_TIM_PWM_PulseFinishedHalfCpltCallback+0x94>)
 800045e:	e7ed      	b.n	800043c <HAL_TIM_PWM_PulseFinishedHalfCpltCallback+0x40>
 8000460:	20000215 	.word	0x20000215
 8000464:	20000217 	.word	0x20000217
 8000468:	2000061c 	.word	0x2000061c
 800046c:	200001e9 	.word	0x200001e9
 8000470:	2000039a 	.word	0x2000039a
 8000474:	20000218 	.word	0x20000218
 8000478:	20000399 	.word	0x20000399
 800047c:	20000398 	.word	0x20000398
 8000480:	200001ea 	.word	0x200001ea
 8000484:	2000051e 	.word	0x2000051e
 8000488:	2000051d 	.word	0x2000051d
 800048c:	2000039c 	.word	0x2000039c
 8000490:	2000051c 	.word	0x2000051c

08000494 <AdcInitializeData>:
 8000494:	b510      	push	{r4, lr}
 8000496:	2400      	movs	r4, #0
 8000498:	4b0e      	ldr	r3, [pc, #56]	; (80004d4 <AdcInitializeData+0x40>)
 800049a:	2210      	movs	r2, #16
 800049c:	4621      	mov	r1, r4
 800049e:	601c      	str	r4, [r3, #0]
 80004a0:	605c      	str	r4, [r3, #4]
 80004a2:	480d      	ldr	r0, [pc, #52]	; (80004d8 <AdcInitializeData+0x44>)
 80004a4:	f004 fae4 	bl	8004a70 <memset>
 80004a8:	f44f 627a 	mov.w	r2, #4000	; 0xfa0
 80004ac:	4b0b      	ldr	r3, [pc, #44]	; (80004dc <AdcInitializeData+0x48>)
 80004ae:	f44f 61c8 	mov.w	r1, #1600	; 0x640
 80004b2:	801a      	strh	r2, [r3, #0]
 80004b4:	805a      	strh	r2, [r3, #2]
 80004b6:	809a      	strh	r2, [r3, #4]
 80004b8:	2201      	movs	r2, #1
 80004ba:	80d9      	strh	r1, [r3, #6]
 80004bc:	4b08      	ldr	r3, [pc, #32]	; (80004e0 <AdcInitializeData+0x4c>)
 80004be:	701c      	strb	r4, [r3, #0]
 80004c0:	709a      	strb	r2, [r3, #2]
 80004c2:	70dc      	strb	r4, [r3, #3]
 80004c4:	705a      	strb	r2, [r3, #1]
 80004c6:	4b07      	ldr	r3, [pc, #28]	; (80004e4 <AdcInitializeData+0x50>)
 80004c8:	701a      	strb	r2, [r3, #0]
 80004ca:	709c      	strb	r4, [r3, #2]
 80004cc:	70dc      	strb	r4, [r3, #3]
 80004ce:	705a      	strb	r2, [r3, #1]
 80004d0:	bd10      	pop	{r4, pc}
 80004d2:	bf00      	nop
 80004d4:	200001ec 	.word	0x200001ec
 80004d8:	200001f4 	.word	0x200001f4
 80004dc:	20000204 	.word	0x20000204
 80004e0:	20000210 	.word	0x20000210
 80004e4:	2000020c 	.word	0x2000020c

080004e8 <GetButtonState>:
 80004e8:	b538      	push	{r3, r4, r5, lr}
 80004ea:	4d1a      	ldr	r5, [pc, #104]	; (8000554 <GetButtonState+0x6c>)
 80004ec:	4604      	mov	r4, r0
 80004ee:	782b      	ldrb	r3, [r5, #0]
 80004f0:	4103      	asrs	r3, r0
 80004f2:	07db      	lsls	r3, r3, #31
 80004f4:	d519      	bpl.n	800052a <GetButtonState+0x42>
 80004f6:	f000 fc05 	bl	8000d04 <HAL_GetTick>
 80004fa:	4b17      	ldr	r3, [pc, #92]	; (8000558 <GetButtonState+0x70>)
 80004fc:	f853 3024 	ldr.w	r3, [r3, r4, lsl #2]
 8000500:	1ac0      	subs	r0, r0, r3
 8000502:	2828      	cmp	r0, #40	; 0x28
 8000504:	d801      	bhi.n	800050a <GetButtonState+0x22>
 8000506:	20ff      	movs	r0, #255	; 0xff
 8000508:	bd38      	pop	{r3, r4, r5, pc}
 800050a:	4b14      	ldr	r3, [pc, #80]	; (800055c <GetButtonState+0x74>)
 800050c:	4a14      	ldr	r2, [pc, #80]	; (8000560 <GetButtonState+0x78>)
 800050e:	f833 3014 	ldrh.w	r3, [r3, r4, lsl #1]
 8000512:	f832 2014 	ldrh.w	r2, [r2, r4, lsl #1]
 8000516:	3b13      	subs	r3, #19
 8000518:	4293      	cmp	r3, r2
 800051a:	ddf4      	ble.n	8000506 <GetButtonState+0x1e>
 800051c:	2001      	movs	r0, #1
 800051e:	40a0      	lsls	r0, r4
 8000520:	782c      	ldrb	r4, [r5, #0]
 8000522:	4044      	eors	r4, r0
 8000524:	702c      	strb	r4, [r5, #0]
 8000526:	2000      	movs	r0, #0
 8000528:	e7ee      	b.n	8000508 <GetButtonState+0x20>
 800052a:	4b0d      	ldr	r3, [pc, #52]	; (8000560 <GetButtonState+0x78>)
 800052c:	f833 2010 	ldrh.w	r2, [r3, r0, lsl #1]
 8000530:	4b0a      	ldr	r3, [pc, #40]	; (800055c <GetButtonState+0x74>)
 8000532:	f833 3010 	ldrh.w	r3, [r3, r0, lsl #1]
 8000536:	429a      	cmp	r2, r3
 8000538:	d3e5      	bcc.n	8000506 <GetButtonState+0x1e>
 800053a:	f000 fbe3 	bl	8000d04 <HAL_GetTick>
 800053e:	4b06      	ldr	r3, [pc, #24]	; (8000558 <GetButtonState+0x70>)
 8000540:	f843 0024 	str.w	r0, [r3, r4, lsl #2]
 8000544:	2001      	movs	r0, #1
 8000546:	782b      	ldrb	r3, [r5, #0]
 8000548:	fa00 f404 	lsl.w	r4, r0, r4
 800054c:	431c      	orrs	r4, r3
 800054e:	702c      	strb	r4, [r5, #0]
 8000550:	e7da      	b.n	8000508 <GetButtonState+0x20>
 8000552:	bf00      	nop
 8000554:	20000214 	.word	0x20000214
 8000558:	200001f4 	.word	0x200001f4
 800055c:	20000204 	.word	0x20000204
 8000560:	200001ec 	.word	0x200001ec

08000564 <HAL_ADC_ConvCpltCallback>:
 8000564:	4b2c      	ldr	r3, [pc, #176]	; (8000618 <HAL_ADC_ConvCpltCallback+0xb4>)
 8000566:	e92d 47f3 	stmdb	sp!, {r0, r1, r4, r5, r6, r7, r8, r9, sl, lr}
 800056a:	4283      	cmp	r3, r0
 800056c:	d150      	bne.n	8000610 <HAL_ADC_ConvCpltCallback+0xac>
 800056e:	2600      	movs	r6, #0
 8000570:	4635      	mov	r5, r6
 8000572:	4f2a      	ldr	r7, [pc, #168]	; (800061c <HAL_ADC_ConvCpltCallback+0xb8>)
 8000574:	f8df 80a8 	ldr.w	r8, [pc, #168]	; 8000620 <HAL_ADC_ConvCpltCallback+0xbc>
 8000578:	4628      	mov	r0, r5
 800057a:	f817 ab01 	ldrb.w	sl, [r7], #1
 800057e:	f818 9b01 	ldrb.w	r9, [r8], #1
 8000582:	f7ff ffb1 	bl	80004e8 <GetButtonState>
 8000586:	2801      	cmp	r0, #1
 8000588:	4604      	mov	r4, r0
 800058a:	d106      	bne.n	800059a <HAL_ADC_ConvCpltCallback+0x36>
 800058c:	4651      	mov	r1, sl
 800058e:	4648      	mov	r0, r9
 8000590:	f7ff fddc 	bl	800014c <GetLedSection>
 8000594:	2601      	movs	r6, #1
 8000596:	7044      	strb	r4, [r0, #1]
 8000598:	e001      	b.n	800059e <HAL_ADC_ConvCpltCallback+0x3a>
 800059a:	2800      	cmp	r0, #0
 800059c:	d0f6      	beq.n	800058c <HAL_ADC_ConvCpltCallback+0x28>
 800059e:	3501      	adds	r5, #1
 80005a0:	b2ed      	uxtb	r5, r5
 80005a2:	2d04      	cmp	r5, #4
 80005a4:	d1e8      	bne.n	8000578 <HAL_ADC_ConvCpltCallback+0x14>
 80005a6:	b126      	cbz	r6, 80005b2 <HAL_ADC_ConvCpltCallback+0x4e>
 80005a8:	2201      	movs	r2, #1
 80005aa:	491e      	ldr	r1, [pc, #120]	; (8000624 <HAL_ADC_ConvCpltCallback+0xc0>)
 80005ac:	481e      	ldr	r0, [pc, #120]	; (8000628 <HAL_ADC_ConvCpltCallback+0xc4>)
 80005ae:	f003 fca9 	bl	8003f04 <USBD_CUSTOM_HID_SendReport>
 80005b2:	4b1e      	ldr	r3, [pc, #120]	; (800062c <HAL_ADC_ConvCpltCallback+0xc8>)
 80005b4:	f893 3021 	ldrb.w	r3, [r3, #33]	; 0x21
 80005b8:	2b01      	cmp	r3, #1
 80005ba:	d110      	bne.n	80005de <HAL_ADC_ConvCpltCallback+0x7a>
 80005bc:	4b1c      	ldr	r3, [pc, #112]	; (8000630 <HAL_ADC_ConvCpltCallback+0xcc>)
 80005be:	2200      	movs	r2, #0
 80005c0:	9301      	str	r3, [sp, #4]
 80005c2:	4b1c      	ldr	r3, [pc, #112]	; (8000634 <HAL_ADC_ConvCpltCallback+0xd0>)
 80005c4:	2108      	movs	r1, #8
 80005c6:	9300      	str	r3, [sp, #0]
 80005c8:	481b      	ldr	r0, [pc, #108]	; (8000638 <HAL_ADC_ConvCpltCallback+0xd4>)
 80005ca:	4b1c      	ldr	r3, [pc, #112]	; (800063c <HAL_ADC_ConvCpltCallback+0xd8>)
 80005cc:	f7ff fe7a 	bl	80002c4 <InitializeMemoryForDmaTransaction>
 80005d0:	b128      	cbz	r0, 80005de <HAL_ADC_ConvCpltCallback+0x7a>
 80005d2:	23c0      	movs	r3, #192	; 0xc0
 80005d4:	2100      	movs	r1, #0
 80005d6:	4a18      	ldr	r2, [pc, #96]	; (8000638 <HAL_ADC_ConvCpltCallback+0xd4>)
 80005d8:	4819      	ldr	r0, [pc, #100]	; (8000640 <HAL_ADC_ConvCpltCallback+0xdc>)
 80005da:	f002 fda3 	bl	8003124 <HAL_TIM_PWM_Start_DMA>
 80005de:	4b19      	ldr	r3, [pc, #100]	; (8000644 <HAL_ADC_ConvCpltCallback+0xe0>)
 80005e0:	f893 3021 	ldrb.w	r3, [r3, #33]	; 0x21
 80005e4:	2b01      	cmp	r3, #1
 80005e6:	b2da      	uxtb	r2, r3
 80005e8:	d112      	bne.n	8000610 <HAL_ADC_ConvCpltCallback+0xac>
 80005ea:	4b17      	ldr	r3, [pc, #92]	; (8000648 <HAL_ADC_ConvCpltCallback+0xe4>)
 80005ec:	2108      	movs	r1, #8
 80005ee:	9301      	str	r3, [sp, #4]
 80005f0:	4b16      	ldr	r3, [pc, #88]	; (800064c <HAL_ADC_ConvCpltCallback+0xe8>)
 80005f2:	4817      	ldr	r0, [pc, #92]	; (8000650 <HAL_ADC_ConvCpltCallback+0xec>)
 80005f4:	9300      	str	r3, [sp, #0]
 80005f6:	4b17      	ldr	r3, [pc, #92]	; (8000654 <HAL_ADC_ConvCpltCallback+0xf0>)
 80005f8:	f7ff fe64 	bl	80002c4 <InitializeMemoryForDmaTransaction>
 80005fc:	b140      	cbz	r0, 8000610 <HAL_ADC_ConvCpltCallback+0xac>
 80005fe:	23c0      	movs	r3, #192	; 0xc0
 8000600:	2104      	movs	r1, #4
 8000602:	4a13      	ldr	r2, [pc, #76]	; (8000650 <HAL_ADC_ConvCpltCallback+0xec>)
 8000604:	480e      	ldr	r0, [pc, #56]	; (8000640 <HAL_ADC_ConvCpltCallback+0xdc>)
 8000606:	b002      	add	sp, #8
 8000608:	e8bd 47f0 	ldmia.w	sp!, {r4, r5, r6, r7, r8, r9, sl, lr}
 800060c:	f002 bd8a 	b.w	8003124 <HAL_TIM_PWM_Start_DMA>
 8000610:	b002      	add	sp, #8
 8000612:	e8bd 87f0 	ldmia.w	sp!, {r4, r5, r6, r7, r8, r9, sl, pc}
 8000616:	bf00      	nop
 8000618:	20000520 	.word	0x20000520
 800061c:	20000210 	.word	0x20000210
 8000620:	2000020c 	.word	0x2000020c
 8000624:	20000214 	.word	0x20000214
 8000628:	20000670 	.word	0x20000670
 800062c:	20000594 	.word	0x20000594
 8000630:	2000039a 	.word	0x2000039a
 8000634:	20000399 	.word	0x20000399
 8000638:	20000218 	.word	0x20000218
 800063c:	20000398 	.word	0x20000398
 8000640:	2000061c 	.word	0x2000061c
 8000644:	200005d8 	.word	0x200005d8
 8000648:	2000051e 	.word	0x2000051e
 800064c:	2000051d 	.word	0x2000051d
 8000650:	2000039c 	.word	0x2000039c
 8000654:	2000051c 	.word	0x2000051c

08000658 <SystemClock_Config>:
 8000658:	b510      	push	{r4, lr}
 800065a:	b094      	sub	sp, #80	; 0x50
 800065c:	2214      	movs	r2, #20
 800065e:	2100      	movs	r1, #0
 8000660:	a80c      	add	r0, sp, #48	; 0x30
 8000662:	f004 fa05 	bl	8004a70 <memset>
 8000666:	2214      	movs	r2, #20
 8000668:	2100      	movs	r1, #0
 800066a:	eb0d 0002 	add.w	r0, sp, r2
 800066e:	f004 f9ff 	bl	8004a70 <memset>
 8000672:	2210      	movs	r2, #16
 8000674:	2100      	movs	r1, #0
 8000676:	a801      	add	r0, sp, #4
 8000678:	f004 f9fa 	bl	8004a70 <memset>
 800067c:	2402      	movs	r4, #2
 800067e:	f44f 3380 	mov.w	r3, #65536	; 0x10000
 8000682:	2201      	movs	r2, #1
 8000684:	e9cd 4311 	strd	r4, r3, [sp, #68]	; 0x44
 8000688:	e9cd 230a 	strd	r2, r3, [sp, #40]	; 0x28
 800068c:	f44f 13e0 	mov.w	r3, #1835008	; 0x1c0000
 8000690:	a80a      	add	r0, sp, #40	; 0x28
 8000692:	920e      	str	r2, [sp, #56]	; 0x38
 8000694:	9313      	str	r3, [sp, #76]	; 0x4c
 8000696:	f001 fef9 	bl	800248c <HAL_RCC_OscConfig>
 800069a:	b108      	cbz	r0, 80006a0 <SystemClock_Config+0x48>
 800069c:	b672      	cpsid	i
 800069e:	e7fe      	b.n	800069e <SystemClock_Config+0x46>
 80006a0:	230f      	movs	r3, #15
 80006a2:	e9cd 3405 	strd	r3, r4, [sp, #20]
 80006a6:	f44f 6380 	mov.w	r3, #1024	; 0x400
 80006aa:	9007      	str	r0, [sp, #28]
 80006ac:	e9cd 3008 	strd	r3, r0, [sp, #32]
 80006b0:	4621      	mov	r1, r4
 80006b2:	a805      	add	r0, sp, #20
 80006b4:	f002 f8ac 	bl	8002810 <HAL_RCC_ClockConfig>
 80006b8:	b108      	cbz	r0, 80006be <SystemClock_Config+0x66>
 80006ba:	b672      	cpsid	i
 80006bc:	e7fe      	b.n	80006bc <SystemClock_Config+0x64>
 80006be:	2312      	movs	r3, #18
 80006c0:	9301      	str	r3, [sp, #4]
 80006c2:	f44f 4300 	mov.w	r3, #32768	; 0x8000
 80006c6:	e9cd 3003 	strd	r3, r0, [sp, #12]
 80006ca:	a801      	add	r0, sp, #4
 80006cc:	f002 f93c 	bl	8002948 <HAL_RCCEx_PeriphCLKConfig>
 80006d0:	b108      	cbz	r0, 80006d6 <SystemClock_Config+0x7e>
 80006d2:	b672      	cpsid	i
 80006d4:	e7fe      	b.n	80006d4 <SystemClock_Config+0x7c>
 80006d6:	b014      	add	sp, #80	; 0x50
 80006d8:	bd10      	pop	{r4, pc}
	...

080006dc <main>:
 80006dc:	b500      	push	{lr}
 80006de:	b09b      	sub	sp, #108	; 0x6c
 80006e0:	f000 faf2 	bl	8000cc8 <HAL_Init>
 80006e4:	f7ff ffb8 	bl	8000658 <SystemClock_Config>
 80006e8:	4ba5      	ldr	r3, [pc, #660]	; (8000980 <main+0x2a4>)
 80006ea:	200b      	movs	r0, #11
 80006ec:	699a      	ldr	r2, [r3, #24]
 80006ee:	4ca5      	ldr	r4, [pc, #660]	; (8000984 <main+0x2a8>)
 80006f0:	f042 0220 	orr.w	r2, r2, #32
 80006f4:	619a      	str	r2, [r3, #24]
 80006f6:	699a      	ldr	r2, [r3, #24]
 80006f8:	2601      	movs	r6, #1
 80006fa:	f002 0220 	and.w	r2, r2, #32
 80006fe:	9203      	str	r2, [sp, #12]
 8000700:	9a03      	ldr	r2, [sp, #12]
 8000702:	699a      	ldr	r2, [r3, #24]
 8000704:	2504      	movs	r5, #4
 8000706:	f042 0204 	orr.w	r2, r2, #4
 800070a:	619a      	str	r2, [r3, #24]
 800070c:	699a      	ldr	r2, [r3, #24]
 800070e:	f002 0204 	and.w	r2, r2, #4
 8000712:	9204      	str	r2, [sp, #16]
 8000714:	9a04      	ldr	r2, [sp, #16]
 8000716:	695a      	ldr	r2, [r3, #20]
 8000718:	f042 0201 	orr.w	r2, r2, #1
 800071c:	615a      	str	r2, [r3, #20]
 800071e:	2200      	movs	r2, #0
 8000720:	695b      	ldr	r3, [r3, #20]
 8000722:	4611      	mov	r1, r2
 8000724:	f003 0301 	and.w	r3, r3, #1
 8000728:	9302      	str	r3, [sp, #8]
 800072a:	9b02      	ldr	r3, [sp, #8]
 800072c:	f000 fdb0 	bl	8001290 <HAL_NVIC_SetPriority>
 8000730:	200b      	movs	r0, #11
 8000732:	f000 fddf 	bl	80012f4 <HAL_NVIC_EnableIRQ>
 8000736:	2200      	movs	r2, #0
 8000738:	200c      	movs	r0, #12
 800073a:	4611      	mov	r1, r2
 800073c:	f000 fda8 	bl	8001290 <HAL_NVIC_SetPriority>
 8000740:	200c      	movs	r0, #12
 8000742:	f000 fdd7 	bl	80012f4 <HAL_NVIC_EnableIRQ>
 8000746:	2200      	movs	r2, #0
 8000748:	200d      	movs	r0, #13
 800074a:	4611      	mov	r1, r2
 800074c:	f000 fda0 	bl	8001290 <HAL_NVIC_SetPriority>
 8000750:	200d      	movs	r0, #13
 8000752:	f000 fdcf 	bl	80012f4 <HAL_NVIC_EnableIRQ>
 8000756:	4a8c      	ldr	r2, [pc, #560]	; (8000988 <main+0x2ac>)
 8000758:	2300      	movs	r3, #0
 800075a:	6022      	str	r2, [r4, #0]
 800075c:	f44f 7280 	mov.w	r2, #256	; 0x100
 8000760:	60a2      	str	r2, [r4, #8]
 8000762:	f44f 2260 	mov.w	r2, #917504	; 0xe0000
 8000766:	4620      	mov	r0, r4
 8000768:	e9cd 3312 	strd	r3, r3, [sp, #72]	; 0x48
 800076c:	9314      	str	r3, [sp, #80]	; 0x50
 800076e:	7326      	strb	r6, [r4, #12]
 8000770:	7523      	strb	r3, [r4, #20]
 8000772:	61e2      	str	r2, [r4, #28]
 8000774:	6063      	str	r3, [r4, #4]
 8000776:	6125      	str	r5, [r4, #16]
 8000778:	f000 fcf8 	bl	800116c <HAL_ADC_Init>
 800077c:	b108      	cbz	r0, 8000782 <main+0xa6>
 800077e:	b672      	cpsid	i
 8000780:	e7fe      	b.n	8000780 <main+0xa4>
 8000782:	2307      	movs	r3, #7
 8000784:	4620      	mov	r0, r4
 8000786:	a912      	add	r1, sp, #72	; 0x48
 8000788:	e9cd 6612 	strd	r6, r6, [sp, #72]	; 0x48
 800078c:	9314      	str	r3, [sp, #80]	; 0x50
 800078e:	f000 fb7f 	bl	8000e90 <HAL_ADC_ConfigChannel>
 8000792:	b108      	cbz	r0, 8000798 <main+0xbc>
 8000794:	b672      	cpsid	i
 8000796:	e7fe      	b.n	8000796 <main+0xba>
 8000798:	2302      	movs	r3, #2
 800079a:	4620      	mov	r0, r4
 800079c:	a912      	add	r1, sp, #72	; 0x48
 800079e:	e9cd 3312 	strd	r3, r3, [sp, #72]	; 0x48
 80007a2:	f000 fb75 	bl	8000e90 <HAL_ADC_ConfigChannel>
 80007a6:	b108      	cbz	r0, 80007ac <main+0xd0>
 80007a8:	b672      	cpsid	i
 80007aa:	e7fe      	b.n	80007aa <main+0xce>
 80007ac:	2303      	movs	r3, #3
 80007ae:	4620      	mov	r0, r4
 80007b0:	a912      	add	r1, sp, #72	; 0x48
 80007b2:	e9cd 3312 	strd	r3, r3, [sp, #72]	; 0x48
 80007b6:	f000 fb6b 	bl	8000e90 <HAL_ADC_ConfigChannel>
 80007ba:	b108      	cbz	r0, 80007c0 <main+0xe4>
 80007bc:	b672      	cpsid	i
 80007be:	e7fe      	b.n	80007be <main+0xe2>
 80007c0:	4620      	mov	r0, r4
 80007c2:	a912      	add	r1, sp, #72	; 0x48
 80007c4:	e9cd 5512 	strd	r5, r5, [sp, #72]	; 0x48
 80007c8:	f000 fb62 	bl	8000e90 <HAL_ADC_ConfigChannel>
 80007cc:	4604      	mov	r4, r0
 80007ce:	b108      	cbz	r0, 80007d4 <main+0xf8>
 80007d0:	b672      	cpsid	i
 80007d2:	e7fe      	b.n	80007d2 <main+0xf6>
 80007d4:	4601      	mov	r1, r0
 80007d6:	2210      	movs	r2, #16
 80007d8:	a807      	add	r0, sp, #28
 80007da:	f004 f949 	bl	8004a70 <memset>
 80007de:	221c      	movs	r2, #28
 80007e0:	4621      	mov	r1, r4
 80007e2:	a80b      	add	r0, sp, #44	; 0x2c
 80007e4:	e9cd 4405 	strd	r4, r4, [sp, #20]
 80007e8:	f004 f942 	bl	8004a70 <memset>
 80007ec:	2220      	movs	r2, #32
 80007ee:	4621      	mov	r1, r4
 80007f0:	a812      	add	r0, sp, #72	; 0x48
 80007f2:	f004 f93d 	bl	8004a70 <memset>
 80007f6:	4d65      	ldr	r5, [pc, #404]	; (800098c <main+0x2b0>)
 80007f8:	4b65      	ldr	r3, [pc, #404]	; (8000990 <main+0x2b4>)
 80007fa:	4628      	mov	r0, r5
 80007fc:	e9c5 3400 	strd	r3, r4, [r5]
 8000800:	235a      	movs	r3, #90	; 0x5a
 8000802:	e9c5 4405 	strd	r4, r4, [r5, #20]
 8000806:	e9c5 3403 	strd	r3, r4, [r5, #12]
 800080a:	60ac      	str	r4, [r5, #8]
 800080c:	f002 fa3c 	bl	8002c88 <HAL_TIM_Base_Init>
 8000810:	b108      	cbz	r0, 8000816 <main+0x13a>
 8000812:	b672      	cpsid	i
 8000814:	e7fe      	b.n	8000814 <main+0x138>
 8000816:	f44f 5380 	mov.w	r3, #4096	; 0x1000
 800081a:	4628      	mov	r0, r5
 800081c:	a907      	add	r1, sp, #28
 800081e:	9307      	str	r3, [sp, #28]
 8000820:	f002 fb1c 	bl	8002e5c <HAL_TIM_ConfigClockSource>
 8000824:	b108      	cbz	r0, 800082a <main+0x14e>
 8000826:	b672      	cpsid	i
 8000828:	e7fe      	b.n	8000828 <main+0x14c>
 800082a:	4628      	mov	r0, r5
 800082c:	f002 fa58 	bl	8002ce0 <HAL_TIM_PWM_Init>
 8000830:	b108      	cbz	r0, 8000836 <main+0x15a>
 8000832:	b672      	cpsid	i
 8000834:	e7fe      	b.n	8000834 <main+0x158>
 8000836:	e9cd 0005 	strd	r0, r0, [sp, #20]
 800083a:	a905      	add	r1, sp, #20
 800083c:	4628      	mov	r0, r5
 800083e:	f002 fcd9 	bl	80031f4 <HAL_TIMEx_MasterConfigSynchronization>
 8000842:	4602      	mov	r2, r0
 8000844:	b108      	cbz	r0, 800084a <main+0x16e>
 8000846:	b672      	cpsid	i
 8000848:	e7fe      	b.n	8000848 <main+0x16c>
 800084a:	2360      	movs	r3, #96	; 0x60
 800084c:	e9cd 000d 	strd	r0, r0, [sp, #52]	; 0x34
 8000850:	e9cd 300b 	strd	r3, r0, [sp, #44]	; 0x2c
 8000854:	e9cd 000f 	strd	r0, r0, [sp, #60]	; 0x3c
 8000858:	9011      	str	r0, [sp, #68]	; 0x44
 800085a:	a90b      	add	r1, sp, #44	; 0x2c
 800085c:	4628      	mov	r0, r5
 800085e:	f002 fa97 	bl	8002d90 <HAL_TIM_PWM_ConfigChannel>
 8000862:	b108      	cbz	r0, 8000868 <main+0x18c>
 8000864:	b672      	cpsid	i
 8000866:	e7fe      	b.n	8000866 <main+0x18a>
 8000868:	2204      	movs	r2, #4
 800086a:	4848      	ldr	r0, [pc, #288]	; (800098c <main+0x2b0>)
 800086c:	a90b      	add	r1, sp, #44	; 0x2c
 800086e:	f002 fa8f 	bl	8002d90 <HAL_TIM_PWM_ConfigChannel>
 8000872:	b108      	cbz	r0, 8000878 <main+0x19c>
 8000874:	b672      	cpsid	i
 8000876:	e7fe      	b.n	8000876 <main+0x19a>
 8000878:	f44f 5300 	mov.w	r3, #8192	; 0x2000
 800087c:	e9cd 0012 	strd	r0, r0, [sp, #72]	; 0x48
 8000880:	e9cd 0014 	strd	r0, r0, [sp, #80]	; 0x50
 8000884:	9016      	str	r0, [sp, #88]	; 0x58
 8000886:	9019      	str	r0, [sp, #100]	; 0x64
 8000888:	a912      	add	r1, sp, #72	; 0x48
 800088a:	4840      	ldr	r0, [pc, #256]	; (800098c <main+0x2b0>)
 800088c:	9317      	str	r3, [sp, #92]	; 0x5c
 800088e:	f002 fcdb 	bl	8003248 <HAL_TIMEx_ConfigBreakDeadTime>
 8000892:	4604      	mov	r4, r0
 8000894:	b108      	cbz	r0, 800089a <main+0x1be>
 8000896:	b672      	cpsid	i
 8000898:	e7fe      	b.n	8000898 <main+0x1bc>
 800089a:	483c      	ldr	r0, [pc, #240]	; (800098c <main+0x2b0>)
 800089c:	f000 f958 	bl	8000b50 <HAL_TIM_MspPostInit>
 80008a0:	f003 feea 	bl	8004678 <MX_USB_DEVICE_Init>
 80008a4:	f7ff fdf6 	bl	8000494 <AdcInitializeData>
 80008a8:	2002      	movs	r0, #2
 80008aa:	f7ff fc59 	bl	8000160 <Initialize>
 80008ae:	2103      	movs	r1, #3
 80008b0:	4620      	mov	r0, r4
 80008b2:	f7ff fc6b 	bl	800018c <InitializeChannel>
 80008b6:	2102      	movs	r1, #2
 80008b8:	2001      	movs	r0, #1
 80008ba:	f7ff fc67 	bl	800018c <InitializeChannel>
 80008be:	4621      	mov	r1, r4
 80008c0:	4620      	mov	r0, r4
 80008c2:	f7ff fc43 	bl	800014c <GetLedSection>
 80008c6:	2512      	movs	r5, #18
 80008c8:	4621      	mov	r1, r4
 80008ca:	7005      	strb	r5, [r0, #0]
 80008cc:	4620      	mov	r0, r4
 80008ce:	f7ff fc3d 	bl	800014c <GetLedSection>
 80008d2:	2101      	movs	r1, #1
 80008d4:	7044      	strb	r4, [r0, #1]
 80008d6:	4620      	mov	r0, r4
 80008d8:	f7ff fc38 	bl	800014c <GetLedSection>
 80008dc:	2101      	movs	r1, #1
 80008de:	7005      	strb	r5, [r0, #0]
 80008e0:	4620      	mov	r0, r4
 80008e2:	f7ff fc33 	bl	800014c <GetLedSection>
 80008e6:	4621      	mov	r1, r4
 80008e8:	7044      	strb	r4, [r0, #1]
 80008ea:	2001      	movs	r0, #1
 80008ec:	f7ff fc2e 	bl	800014c <GetLedSection>
 80008f0:	4621      	mov	r1, r4
 80008f2:	7005      	strb	r5, [r0, #0]
 80008f4:	2001      	movs	r0, #1
 80008f6:	f7ff fc29 	bl	800014c <GetLedSection>
 80008fa:	2101      	movs	r1, #1
 80008fc:	7044      	strb	r4, [r0, #1]
 80008fe:	4608      	mov	r0, r1
 8000900:	f7ff fc24 	bl	800014c <GetLedSection>
 8000904:	2101      	movs	r1, #1
 8000906:	7005      	strb	r5, [r0, #0]
 8000908:	4608      	mov	r0, r1
 800090a:	f7ff fc1f 	bl	800014c <GetLedSection>
 800090e:	2102      	movs	r1, #2
 8000910:	7044      	strb	r4, [r0, #1]
 8000912:	2001      	movs	r0, #1
 8000914:	f7ff fc1a 	bl	800014c <GetLedSection>
 8000918:	2318      	movs	r3, #24
 800091a:	2102      	movs	r1, #2
 800091c:	7003      	strb	r3, [r0, #0]
 800091e:	2001      	movs	r0, #1
 8000920:	f7ff fc14 	bl	800014c <GetLedSection>
 8000924:	2302      	movs	r3, #2
 8000926:	7043      	strb	r3, [r0, #1]
 8000928:	f44f 70fa 	mov.w	r0, #500	; 0x1f4
 800092c:	f000 f9f0 	bl	8000d10 <HAL_Delay>
 8000930:	4b18      	ldr	r3, [pc, #96]	; (8000994 <main+0x2b8>)
 8000932:	2204      	movs	r2, #4
 8000934:	4918      	ldr	r1, [pc, #96]	; (8000998 <main+0x2bc>)
 8000936:	4813      	ldr	r0, [pc, #76]	; (8000984 <main+0x2a8>)
 8000938:	701c      	strb	r4, [r3, #0]
 800093a:	f000 fb63 	bl	8001004 <HAL_ADC_Start_DMA>
 800093e:	4b17      	ldr	r3, [pc, #92]	; (800099c <main+0x2c0>)
 8000940:	4622      	mov	r2, r4
 8000942:	9301      	str	r3, [sp, #4]
 8000944:	4b16      	ldr	r3, [pc, #88]	; (80009a0 <main+0x2c4>)
 8000946:	2108      	movs	r1, #8
 8000948:	9300      	str	r3, [sp, #0]
 800094a:	4816      	ldr	r0, [pc, #88]	; (80009a4 <main+0x2c8>)
 800094c:	4b16      	ldr	r3, [pc, #88]	; (80009a8 <main+0x2cc>)
 800094e:	f7ff fcb9 	bl	80002c4 <InitializeMemoryForDmaTransaction>
 8000952:	23c0      	movs	r3, #192	; 0xc0
 8000954:	4621      	mov	r1, r4
 8000956:	4a13      	ldr	r2, [pc, #76]	; (80009a4 <main+0x2c8>)
 8000958:	480c      	ldr	r0, [pc, #48]	; (800098c <main+0x2b0>)
 800095a:	f002 fbe3 	bl	8003124 <HAL_TIM_PWM_Start_DMA>
 800095e:	4b13      	ldr	r3, [pc, #76]	; (80009ac <main+0x2d0>)
 8000960:	2201      	movs	r2, #1
 8000962:	9301      	str	r3, [sp, #4]
 8000964:	4b12      	ldr	r3, [pc, #72]	; (80009b0 <main+0x2d4>)
 8000966:	2108      	movs	r1, #8
 8000968:	9300      	str	r3, [sp, #0]
 800096a:	4812      	ldr	r0, [pc, #72]	; (80009b4 <main+0x2d8>)
 800096c:	4b12      	ldr	r3, [pc, #72]	; (80009b8 <main+0x2dc>)
 800096e:	f7ff fca9 	bl	80002c4 <InitializeMemoryForDmaTransaction>
 8000972:	23c0      	movs	r3, #192	; 0xc0
 8000974:	2104      	movs	r1, #4
 8000976:	4a0f      	ldr	r2, [pc, #60]	; (80009b4 <main+0x2d8>)
 8000978:	4804      	ldr	r0, [pc, #16]	; (800098c <main+0x2b0>)
 800097a:	f002 fbd3 	bl	8003124 <HAL_TIM_PWM_Start_DMA>
 800097e:	e7fe      	b.n	800097e <main+0x2a2>
 8000980:	40021000 	.word	0x40021000
 8000984:	20000520 	.word	0x20000520
 8000988:	40012400 	.word	0x40012400
 800098c:	2000061c 	.word	0x2000061c
 8000990:	40012c00 	.word	0x40012c00
 8000994:	20000214 	.word	0x20000214
 8000998:	200001ec 	.word	0x200001ec
 800099c:	2000039a 	.word	0x2000039a
 80009a0:	20000399 	.word	0x20000399
 80009a4:	20000218 	.word	0x20000218
 80009a8:	20000398 	.word	0x20000398
 80009ac:	2000051e 	.word	0x2000051e
 80009b0:	2000051d 	.word	0x2000051d
 80009b4:	2000039c 	.word	0x2000039c
 80009b8:	2000051c 	.word	0x2000051c

080009bc <Error_Handler>:
 80009bc:	b672      	cpsid	i
 80009be:	e7fe      	b.n	80009be <Error_Handler+0x2>

080009c0 <HAL_MspInit>:
 80009c0:	4b0e      	ldr	r3, [pc, #56]	; (80009fc <HAL_MspInit+0x3c>)
 80009c2:	b082      	sub	sp, #8
 80009c4:	699a      	ldr	r2, [r3, #24]
 80009c6:	f042 0201 	orr.w	r2, r2, #1
 80009ca:	619a      	str	r2, [r3, #24]
 80009cc:	699a      	ldr	r2, [r3, #24]
 80009ce:	f002 0201 	and.w	r2, r2, #1
 80009d2:	9200      	str	r2, [sp, #0]
 80009d4:	9a00      	ldr	r2, [sp, #0]
 80009d6:	69da      	ldr	r2, [r3, #28]
 80009d8:	f042 5280 	orr.w	r2, r2, #268435456	; 0x10000000
 80009dc:	61da      	str	r2, [r3, #28]
 80009de:	69db      	ldr	r3, [r3, #28]
 80009e0:	4a07      	ldr	r2, [pc, #28]	; (8000a00 <HAL_MspInit+0x40>)
 80009e2:	f003 5380 	and.w	r3, r3, #268435456	; 0x10000000
 80009e6:	9301      	str	r3, [sp, #4]
 80009e8:	9b01      	ldr	r3, [sp, #4]
 80009ea:	6853      	ldr	r3, [r2, #4]
 80009ec:	f023 63e0 	bic.w	r3, r3, #117440512	; 0x7000000
 80009f0:	f043 7300 	orr.w	r3, r3, #33554432	; 0x2000000
 80009f4:	6053      	str	r3, [r2, #4]
 80009f6:	b002      	add	sp, #8
 80009f8:	4770      	bx	lr
 80009fa:	bf00      	nop
 80009fc:	40021000 	.word	0x40021000
 8000a00:	40010000 	.word	0x40010000

08000a04 <HAL_ADC_MspInit>:
 8000a04:	b530      	push	{r4, r5, lr}
 8000a06:	4605      	mov	r5, r0
 8000a08:	b087      	sub	sp, #28
 8000a0a:	2210      	movs	r2, #16
 8000a0c:	2100      	movs	r1, #0
 8000a0e:	a802      	add	r0, sp, #8
 8000a10:	f004 f82e 	bl	8004a70 <memset>
 8000a14:	682a      	ldr	r2, [r5, #0]
 8000a16:	4b21      	ldr	r3, [pc, #132]	; (8000a9c <HAL_ADC_MspInit+0x98>)
 8000a18:	429a      	cmp	r2, r3
 8000a1a:	d13c      	bne.n	8000a96 <HAL_ADC_MspInit+0x92>
 8000a1c:	f503 436c 	add.w	r3, r3, #60416	; 0xec00
 8000a20:	699a      	ldr	r2, [r3, #24]
 8000a22:	481f      	ldr	r0, [pc, #124]	; (8000aa0 <HAL_ADC_MspInit+0x9c>)
 8000a24:	f442 7200 	orr.w	r2, r2, #512	; 0x200
 8000a28:	619a      	str	r2, [r3, #24]
 8000a2a:	699a      	ldr	r2, [r3, #24]
 8000a2c:	a902      	add	r1, sp, #8
 8000a2e:	f402 7200 	and.w	r2, r2, #512	; 0x200
 8000a32:	9200      	str	r2, [sp, #0]
 8000a34:	9a00      	ldr	r2, [sp, #0]
 8000a36:	699a      	ldr	r2, [r3, #24]
 8000a38:	4c1a      	ldr	r4, [pc, #104]	; (8000aa4 <HAL_ADC_MspInit+0xa0>)
 8000a3a:	f042 0204 	orr.w	r2, r2, #4
 8000a3e:	619a      	str	r2, [r3, #24]
 8000a40:	699b      	ldr	r3, [r3, #24]
 8000a42:	221e      	movs	r2, #30
 8000a44:	f003 0304 	and.w	r3, r3, #4
 8000a48:	9301      	str	r3, [sp, #4]
 8000a4a:	9b01      	ldr	r3, [sp, #4]
 8000a4c:	2303      	movs	r3, #3
 8000a4e:	e9cd 2302 	strd	r2, r3, [sp, #8]
 8000a52:	f000 fdbb 	bl	80015cc <HAL_GPIO_Init>
 8000a56:	2080      	movs	r0, #128	; 0x80
 8000a58:	f44f 7280 	mov.w	r2, #256	; 0x100
 8000a5c:	2300      	movs	r3, #0
 8000a5e:	e9c4 0203 	strd	r0, r2, [r4, #12]
 8000a62:	f44f 6c80 	mov.w	ip, #1024	; 0x400
 8000a66:	2220      	movs	r2, #32
 8000a68:	490f      	ldr	r1, [pc, #60]	; (8000aa8 <HAL_ADC_MspInit+0xa4>)
 8000a6a:	4620      	mov	r0, r4
 8000a6c:	e9c4 1300 	strd	r1, r3, [r4]
 8000a70:	e9c4 c205 	strd	ip, r2, [r4, #20]
 8000a74:	60a3      	str	r3, [r4, #8]
 8000a76:	61e3      	str	r3, [r4, #28]
 8000a78:	f000 fc5e 	bl	8001338 <HAL_DMA_Init>
 8000a7c:	b108      	cbz	r0, 8000a82 <HAL_ADC_MspInit+0x7e>
 8000a7e:	f7ff ff9d 	bl	80009bc <Error_Handler>
 8000a82:	2200      	movs	r2, #0
 8000a84:	2012      	movs	r0, #18
 8000a86:	622c      	str	r4, [r5, #32]
 8000a88:	4611      	mov	r1, r2
 8000a8a:	6265      	str	r5, [r4, #36]	; 0x24
 8000a8c:	f000 fc00 	bl	8001290 <HAL_NVIC_SetPriority>
 8000a90:	2012      	movs	r0, #18
 8000a92:	f000 fc2f 	bl	80012f4 <HAL_NVIC_EnableIRQ>
 8000a96:	b007      	add	sp, #28
 8000a98:	bd30      	pop	{r4, r5, pc}
 8000a9a:	bf00      	nop
 8000a9c:	40012400 	.word	0x40012400
 8000aa0:	40010800 	.word	0x40010800
 8000aa4:	20000550 	.word	0x20000550
 8000aa8:	40020008 	.word	0x40020008

08000aac <HAL_TIM_Base_MspInit>:
 8000aac:	b537      	push	{r0, r1, r2, r4, r5, lr}
 8000aae:	4b23      	ldr	r3, [pc, #140]	; (8000b3c <HAL_TIM_Base_MspInit+0x90>)
 8000ab0:	6802      	ldr	r2, [r0, #0]
 8000ab2:	4605      	mov	r5, r0
 8000ab4:	429a      	cmp	r2, r3
 8000ab6:	d13e      	bne.n	8000b36 <HAL_TIM_Base_MspInit+0x8a>
 8000ab8:	f503 4364 	add.w	r3, r3, #58368	; 0xe400
 8000abc:	699a      	ldr	r2, [r3, #24]
 8000abe:	4c20      	ldr	r4, [pc, #128]	; (8000b40 <HAL_TIM_Base_MspInit+0x94>)
 8000ac0:	f442 6200 	orr.w	r2, r2, #2048	; 0x800
 8000ac4:	619a      	str	r2, [r3, #24]
 8000ac6:	699b      	ldr	r3, [r3, #24]
 8000ac8:	481e      	ldr	r0, [pc, #120]	; (8000b44 <HAL_TIM_Base_MspInit+0x98>)
 8000aca:	f403 6300 	and.w	r3, r3, #2048	; 0x800
 8000ace:	9301      	str	r3, [sp, #4]
 8000ad0:	9b01      	ldr	r3, [sp, #4]
 8000ad2:	2310      	movs	r3, #16
 8000ad4:	2280      	movs	r2, #128	; 0x80
 8000ad6:	e9c4 0300 	strd	r0, r3, [r4]
 8000ada:	2300      	movs	r3, #0
 8000adc:	f44f 7c80 	mov.w	ip, #256	; 0x100
 8000ae0:	e9c4 3202 	strd	r3, r2, [r4, #8]
 8000ae4:	f44f 6280 	mov.w	r2, #1024	; 0x400
 8000ae8:	e9c4 c204 	strd	ip, r2, [r4, #16]
 8000aec:	2220      	movs	r2, #32
 8000aee:	4620      	mov	r0, r4
 8000af0:	e9c4 2306 	strd	r2, r3, [r4, #24]
 8000af4:	f000 fc20 	bl	8001338 <HAL_DMA_Init>
 8000af8:	b108      	cbz	r0, 8000afe <HAL_TIM_Base_MspInit+0x52>
 8000afa:	f7ff ff5f 	bl	80009bc <Error_Handler>
 8000afe:	2310      	movs	r3, #16
 8000b00:	4a11      	ldr	r2, [pc, #68]	; (8000b48 <HAL_TIM_Base_MspInit+0x9c>)
 8000b02:	626c      	str	r4, [r5, #36]	; 0x24
 8000b04:	6265      	str	r5, [r4, #36]	; 0x24
 8000b06:	4c11      	ldr	r4, [pc, #68]	; (8000b4c <HAL_TIM_Base_MspInit+0xa0>)
 8000b08:	f44f 7180 	mov.w	r1, #256	; 0x100
 8000b0c:	e9c4 2300 	strd	r2, r3, [r4]
 8000b10:	2300      	movs	r3, #0
 8000b12:	2280      	movs	r2, #128	; 0x80
 8000b14:	e9c4 3202 	strd	r3, r2, [r4, #8]
 8000b18:	f44f 6280 	mov.w	r2, #1024	; 0x400
 8000b1c:	e9c4 1204 	strd	r1, r2, [r4, #16]
 8000b20:	2220      	movs	r2, #32
 8000b22:	4620      	mov	r0, r4
 8000b24:	e9c4 2306 	strd	r2, r3, [r4, #24]
 8000b28:	f000 fc06 	bl	8001338 <HAL_DMA_Init>
 8000b2c:	b108      	cbz	r0, 8000b32 <HAL_TIM_Base_MspInit+0x86>
 8000b2e:	f7ff ff45 	bl	80009bc <Error_Handler>
 8000b32:	62ac      	str	r4, [r5, #40]	; 0x28
 8000b34:	6265      	str	r5, [r4, #36]	; 0x24
 8000b36:	b003      	add	sp, #12
 8000b38:	bd30      	pop	{r4, r5, pc}
 8000b3a:	bf00      	nop
 8000b3c:	40012c00 	.word	0x40012c00
 8000b40:	20000594 	.word	0x20000594
 8000b44:	4002001c 	.word	0x4002001c
 8000b48:	40020030 	.word	0x40020030
 8000b4c:	200005d8 	.word	0x200005d8

08000b50 <HAL_TIM_MspPostInit>:
 8000b50:	b510      	push	{r4, lr}
 8000b52:	4604      	mov	r4, r0
 8000b54:	b086      	sub	sp, #24
 8000b56:	2210      	movs	r2, #16
 8000b58:	2100      	movs	r1, #0
 8000b5a:	a802      	add	r0, sp, #8
 8000b5c:	f003 ff88 	bl	8004a70 <memset>
 8000b60:	6822      	ldr	r2, [r4, #0]
 8000b62:	4b0d      	ldr	r3, [pc, #52]	; (8000b98 <HAL_TIM_MspPostInit+0x48>)
 8000b64:	429a      	cmp	r2, r3
 8000b66:	d114      	bne.n	8000b92 <HAL_TIM_MspPostInit+0x42>
 8000b68:	f503 4364 	add.w	r3, r3, #58368	; 0xe400
 8000b6c:	699a      	ldr	r2, [r3, #24]
 8000b6e:	480b      	ldr	r0, [pc, #44]	; (8000b9c <HAL_TIM_MspPostInit+0x4c>)
 8000b70:	f042 0204 	orr.w	r2, r2, #4
 8000b74:	619a      	str	r2, [r3, #24]
 8000b76:	699b      	ldr	r3, [r3, #24]
 8000b78:	f44f 7240 	mov.w	r2, #768	; 0x300
 8000b7c:	f003 0304 	and.w	r3, r3, #4
 8000b80:	9301      	str	r3, [sp, #4]
 8000b82:	9b01      	ldr	r3, [sp, #4]
 8000b84:	2302      	movs	r3, #2
 8000b86:	a902      	add	r1, sp, #8
 8000b88:	e9cd 2302 	strd	r2, r3, [sp, #8]
 8000b8c:	9305      	str	r3, [sp, #20]
 8000b8e:	f000 fd1d 	bl	80015cc <HAL_GPIO_Init>
 8000b92:	b006      	add	sp, #24
 8000b94:	bd10      	pop	{r4, pc}
 8000b96:	bf00      	nop
 8000b98:	40012c00 	.word	0x40012c00
 8000b9c:	40010800 	.word	0x40010800

08000ba0 <NMI_Handler>:
 8000ba0:	e7fe      	b.n	8000ba0 <NMI_Handler>

08000ba2 <HardFault_Handler>:
 8000ba2:	e7fe      	b.n	8000ba2 <HardFault_Handler>

08000ba4 <MemManage_Handler>:
 8000ba4:	e7fe      	b.n	8000ba4 <MemManage_Handler>

08000ba6 <BusFault_Handler>:
 8000ba6:	e7fe      	b.n	8000ba6 <BusFault_Handler>

08000ba8 <UsageFault_Handler>:
 8000ba8:	e7fe      	b.n	8000ba8 <UsageFault_Handler>

08000baa <SVC_Handler>:
 8000baa:	4770      	bx	lr

08000bac <DebugMon_Handler>:
 8000bac:	4770      	bx	lr

08000bae <PendSV_Handler>:
 8000bae:	4770      	bx	lr

08000bb0 <SysTick_Handler>:
 8000bb0:	f000 b89c 	b.w	8000cec <HAL_IncTick>

08000bb4 <DMA1_Channel1_IRQHandler>:
 8000bb4:	4801      	ldr	r0, [pc, #4]	; (8000bbc <DMA1_Channel1_IRQHandler+0x8>)
 8000bb6:	f000 bc75 	b.w	80014a4 <HAL_DMA_IRQHandler>
 8000bba:	bf00      	nop
 8000bbc:	20000550 	.word	0x20000550

08000bc0 <DMA1_Channel2_IRQHandler>:
 8000bc0:	4801      	ldr	r0, [pc, #4]	; (8000bc8 <DMA1_Channel2_IRQHandler+0x8>)
 8000bc2:	f000 bc6f 	b.w	80014a4 <HAL_DMA_IRQHandler>
 8000bc6:	bf00      	nop
 8000bc8:	20000594 	.word	0x20000594

08000bcc <DMA1_Channel3_IRQHandler>:
 8000bcc:	4801      	ldr	r0, [pc, #4]	; (8000bd4 <DMA1_Channel3_IRQHandler+0x8>)
 8000bce:	f000 bc69 	b.w	80014a4 <HAL_DMA_IRQHandler>
 8000bd2:	bf00      	nop
 8000bd4:	200005d8 	.word	0x200005d8

08000bd8 <ADC1_2_IRQHandler>:
 8000bd8:	4801      	ldr	r0, [pc, #4]	; (8000be0 <ADC1_2_IRQHandler+0x8>)
 8000bda:	f000 b8d9 	b.w	8000d90 <HAL_ADC_IRQHandler>
 8000bde:	bf00      	nop
 8000be0:	20000520 	.word	0x20000520

08000be4 <USB_LP_CAN1_RX0_IRQHandler>:
 8000be4:	4801      	ldr	r0, [pc, #4]	; (8000bec <USB_LP_CAN1_RX0_IRQHandler+0x8>)
 8000be6:	f000 be6d 	b.w	80018c4 <HAL_PCD_IRQHandler>
 8000bea:	bf00      	nop
 8000bec:	20000b34 	.word	0x20000b34

08000bf0 <_sbrk>:
 8000bf0:	4a0b      	ldr	r2, [pc, #44]	; (8000c20 <_sbrk+0x30>)
 8000bf2:	4603      	mov	r3, r0
 8000bf4:	6811      	ldr	r1, [r2, #0]
 8000bf6:	b510      	push	{r4, lr}
 8000bf8:	b909      	cbnz	r1, 8000bfe <_sbrk+0xe>
 8000bfa:	490a      	ldr	r1, [pc, #40]	; (8000c24 <_sbrk+0x34>)
 8000bfc:	6011      	str	r1, [r2, #0]
 8000bfe:	6810      	ldr	r0, [r2, #0]
 8000c00:	4909      	ldr	r1, [pc, #36]	; (8000c28 <_sbrk+0x38>)
 8000c02:	4c0a      	ldr	r4, [pc, #40]	; (8000c2c <_sbrk+0x3c>)
 8000c04:	4403      	add	r3, r0
 8000c06:	1b09      	subs	r1, r1, r4
 8000c08:	428b      	cmp	r3, r1
 8000c0a:	d906      	bls.n	8000c1a <_sbrk+0x2a>
 8000c0c:	f003 fee0 	bl	80049d0 <__errno>
 8000c10:	230c      	movs	r3, #12
 8000c12:	6003      	str	r3, [r0, #0]
 8000c14:	f04f 30ff 	mov.w	r0, #4294967295
 8000c18:	bd10      	pop	{r4, pc}
 8000c1a:	6013      	str	r3, [r2, #0]
 8000c1c:	e7fc      	b.n	8000c18 <_sbrk+0x28>
 8000c1e:	bf00      	nop
 8000c20:	20000664 	.word	0x20000664
 8000c24:	20000e50 	.word	0x20000e50
 8000c28:	20002800 	.word	0x20002800
 8000c2c:	00000400 	.word	0x00000400

08000c30 <SystemInit>:
 8000c30:	4770      	bx	lr
	...

08000c34 <Reset_Handler>:
 8000c34:	480c      	ldr	r0, [pc, #48]	; (8000c68 <LoopFillZerobss+0x12>)
 8000c36:	490d      	ldr	r1, [pc, #52]	; (8000c6c <LoopFillZerobss+0x16>)
 8000c38:	4a0d      	ldr	r2, [pc, #52]	; (8000c70 <LoopFillZerobss+0x1a>)
 8000c3a:	2300      	movs	r3, #0
 8000c3c:	e002      	b.n	8000c44 <LoopCopyDataInit>

08000c3e <CopyDataInit>:
 8000c3e:	58d4      	ldr	r4, [r2, r3]
 8000c40:	50c4      	str	r4, [r0, r3]
 8000c42:	3304      	adds	r3, #4

08000c44 <LoopCopyDataInit>:
 8000c44:	18c4      	adds	r4, r0, r3
 8000c46:	428c      	cmp	r4, r1
 8000c48:	d3f9      	bcc.n	8000c3e <CopyDataInit>
 8000c4a:	4a0a      	ldr	r2, [pc, #40]	; (8000c74 <LoopFillZerobss+0x1e>)
 8000c4c:	4c0a      	ldr	r4, [pc, #40]	; (8000c78 <LoopFillZerobss+0x22>)
 8000c4e:	2300      	movs	r3, #0
 8000c50:	e001      	b.n	8000c56 <LoopFillZerobss>

08000c52 <FillZerobss>:
 8000c52:	6013      	str	r3, [r2, #0]
 8000c54:	3204      	adds	r2, #4

08000c56 <LoopFillZerobss>:
 8000c56:	42a2      	cmp	r2, r4
 8000c58:	d3fb      	bcc.n	8000c52 <FillZerobss>
 8000c5a:	f7ff ffe9 	bl	8000c30 <SystemInit>
 8000c5e:	f003 febd 	bl	80049dc <__libc_init_array>
 8000c62:	f7ff fd3b 	bl	80006dc <main>
 8000c66:	4770      	bx	lr
 8000c68:	20000000 	.word	0x20000000
 8000c6c:	200001c4 	.word	0x200001c4
 8000c70:	08004c6c 	.word	0x08004c6c
 8000c74:	200001c4 	.word	0x200001c4
 8000c78:	20000e50 	.word	0x20000e50

08000c7c <CAN1_RX1_IRQHandler>:
 8000c7c:	e7fe      	b.n	8000c7c <CAN1_RX1_IRQHandler>
	...

08000c80 <HAL_InitTick>:
 8000c80:	b538      	push	{r3, r4, r5, lr}
 8000c82:	4b0e      	ldr	r3, [pc, #56]	; (8000cbc <HAL_InitTick+0x3c>)
 8000c84:	4605      	mov	r5, r0
 8000c86:	7818      	ldrb	r0, [r3, #0]
 8000c88:	f44f 737a 	mov.w	r3, #1000	; 0x3e8
 8000c8c:	fbb3 f3f0 	udiv	r3, r3, r0
 8000c90:	4a0b      	ldr	r2, [pc, #44]	; (8000cc0 <HAL_InitTick+0x40>)
 8000c92:	6810      	ldr	r0, [r2, #0]
 8000c94:	fbb0 f0f3 	udiv	r0, r0, r3
 8000c98:	f000 fb3a 	bl	8001310 <HAL_SYSTICK_Config>
 8000c9c:	4604      	mov	r4, r0
 8000c9e:	b958      	cbnz	r0, 8000cb8 <HAL_InitTick+0x38>
 8000ca0:	2d0f      	cmp	r5, #15
 8000ca2:	d809      	bhi.n	8000cb8 <HAL_InitTick+0x38>
 8000ca4:	4602      	mov	r2, r0
 8000ca6:	4629      	mov	r1, r5
 8000ca8:	f04f 30ff 	mov.w	r0, #4294967295
 8000cac:	f000 faf0 	bl	8001290 <HAL_NVIC_SetPriority>
 8000cb0:	4620      	mov	r0, r4
 8000cb2:	4b04      	ldr	r3, [pc, #16]	; (8000cc4 <HAL_InitTick+0x44>)
 8000cb4:	601d      	str	r5, [r3, #0]
 8000cb6:	bd38      	pop	{r3, r4, r5, pc}
 8000cb8:	2001      	movs	r0, #1
 8000cba:	e7fc      	b.n	8000cb6 <HAL_InitTick+0x36>
 8000cbc:	20000004 	.word	0x20000004
 8000cc0:	20000000 	.word	0x20000000
 8000cc4:	20000008 	.word	0x20000008

08000cc8 <HAL_Init>:
 8000cc8:	4a07      	ldr	r2, [pc, #28]	; (8000ce8 <HAL_Init+0x20>)
 8000cca:	b508      	push	{r3, lr}
 8000ccc:	6813      	ldr	r3, [r2, #0]
 8000cce:	2003      	movs	r0, #3
 8000cd0:	f043 0310 	orr.w	r3, r3, #16
 8000cd4:	6013      	str	r3, [r2, #0]
 8000cd6:	f000 fac9 	bl	800126c <HAL_NVIC_SetPriorityGrouping>
 8000cda:	200f      	movs	r0, #15
 8000cdc:	f7ff ffd0 	bl	8000c80 <HAL_InitTick>
 8000ce0:	f7ff fe6e 	bl	80009c0 <HAL_MspInit>
 8000ce4:	2000      	movs	r0, #0
 8000ce6:	bd08      	pop	{r3, pc}
 8000ce8:	40022000 	.word	0x40022000

08000cec <HAL_IncTick>:
 8000cec:	4a03      	ldr	r2, [pc, #12]	; (8000cfc <HAL_IncTick+0x10>)
 8000cee:	4b04      	ldr	r3, [pc, #16]	; (8000d00 <HAL_IncTick+0x14>)
 8000cf0:	6811      	ldr	r1, [r2, #0]
 8000cf2:	781b      	ldrb	r3, [r3, #0]
 8000cf4:	440b      	add	r3, r1
 8000cf6:	6013      	str	r3, [r2, #0]
 8000cf8:	4770      	bx	lr
 8000cfa:	bf00      	nop
 8000cfc:	20000668 	.word	0x20000668
 8000d00:	20000004 	.word	0x20000004

08000d04 <HAL_GetTick>:
 8000d04:	4b01      	ldr	r3, [pc, #4]	; (8000d0c <HAL_GetTick+0x8>)
 8000d06:	6818      	ldr	r0, [r3, #0]
 8000d08:	4770      	bx	lr
 8000d0a:	bf00      	nop
 8000d0c:	20000668 	.word	0x20000668

08000d10 <HAL_Delay>:
 8000d10:	b538      	push	{r3, r4, r5, lr}
 8000d12:	4604      	mov	r4, r0
 8000d14:	f7ff fff6 	bl	8000d04 <HAL_GetTick>
 8000d18:	4605      	mov	r5, r0
 8000d1a:	1c63      	adds	r3, r4, #1
 8000d1c:	bf1e      	ittt	ne
 8000d1e:	4b04      	ldrne	r3, [pc, #16]	; (8000d30 <HAL_Delay+0x20>)
 8000d20:	781b      	ldrbne	r3, [r3, #0]
 8000d22:	18e4      	addne	r4, r4, r3
 8000d24:	f7ff ffee 	bl	8000d04 <HAL_GetTick>
 8000d28:	1b43      	subs	r3, r0, r5
 8000d2a:	42a3      	cmp	r3, r4
 8000d2c:	d3fa      	bcc.n	8000d24 <HAL_Delay+0x14>
 8000d2e:	bd38      	pop	{r3, r4, r5, pc}
 8000d30:	20000004 	.word	0x20000004

08000d34 <ADC_DMAConvCplt>:
 8000d34:	6a43      	ldr	r3, [r0, #36]	; 0x24
 8000d36:	b510      	push	{r4, lr}
 8000d38:	6a9a      	ldr	r2, [r3, #40]	; 0x28
 8000d3a:	f012 0f50 	tst.w	r2, #80	; 0x50
 8000d3e:	d11b      	bne.n	8000d78 <ADC_DMAConvCplt+0x44>
 8000d40:	6a9a      	ldr	r2, [r3, #40]	; 0x28
 8000d42:	f442 7200 	orr.w	r2, r2, #512	; 0x200
 8000d46:	629a      	str	r2, [r3, #40]	; 0x28
 8000d48:	681a      	ldr	r2, [r3, #0]
 8000d4a:	6892      	ldr	r2, [r2, #8]
 8000d4c:	f402 2260 	and.w	r2, r2, #917504	; 0xe0000
 8000d50:	f5b2 2f60 	cmp.w	r2, #917504	; 0xe0000
 8000d54:	d10c      	bne.n	8000d70 <ADC_DMAConvCplt+0x3c>
 8000d56:	7b1a      	ldrb	r2, [r3, #12]
 8000d58:	b952      	cbnz	r2, 8000d70 <ADC_DMAConvCplt+0x3c>
 8000d5a:	6a9a      	ldr	r2, [r3, #40]	; 0x28
 8000d5c:	f422 7280 	bic.w	r2, r2, #256	; 0x100
 8000d60:	629a      	str	r2, [r3, #40]	; 0x28
 8000d62:	6a9a      	ldr	r2, [r3, #40]	; 0x28
 8000d64:	04d2      	lsls	r2, r2, #19
 8000d66:	bf5e      	ittt	pl
 8000d68:	6a9a      	ldrpl	r2, [r3, #40]	; 0x28
 8000d6a:	f042 0201 	orrpl.w	r2, r2, #1
 8000d6e:	629a      	strpl	r2, [r3, #40]	; 0x28
 8000d70:	4618      	mov	r0, r3
 8000d72:	f7ff fbf7 	bl	8000564 <HAL_ADC_ConvCpltCallback>
 8000d76:	bd10      	pop	{r4, pc}
 8000d78:	6a1b      	ldr	r3, [r3, #32]
 8000d7a:	e8bd 4010 	ldmia.w	sp!, {r4, lr}
 8000d7e:	6b1b      	ldr	r3, [r3, #48]	; 0x30
 8000d80:	4718      	bx	r3

08000d82 <HAL_ADC_ConvHalfCpltCallback>:
 8000d82:	4770      	bx	lr

08000d84 <ADC_DMAHalfConvCplt>:
 8000d84:	b508      	push	{r3, lr}
 8000d86:	6a40      	ldr	r0, [r0, #36]	; 0x24
 8000d88:	f7ff fffb 	bl	8000d82 <HAL_ADC_ConvHalfCpltCallback>
 8000d8c:	bd08      	pop	{r3, pc}

08000d8e <HAL_ADC_LevelOutOfWindowCallback>:
 8000d8e:	4770      	bx	lr

08000d90 <HAL_ADC_IRQHandler>:
 8000d90:	6803      	ldr	r3, [r0, #0]
 8000d92:	b570      	push	{r4, r5, r6, lr}
 8000d94:	681d      	ldr	r5, [r3, #0]
 8000d96:	685e      	ldr	r6, [r3, #4]
 8000d98:	4604      	mov	r4, r0
 8000d9a:	06b0      	lsls	r0, r6, #26
 8000d9c:	d526      	bpl.n	8000dec <HAL_ADC_IRQHandler+0x5c>
 8000d9e:	07a9      	lsls	r1, r5, #30
 8000da0:	d524      	bpl.n	8000dec <HAL_ADC_IRQHandler+0x5c>
 8000da2:	6aa2      	ldr	r2, [r4, #40]	; 0x28
 8000da4:	06d2      	lsls	r2, r2, #27
 8000da6:	bf5e      	ittt	pl
 8000da8:	6aa2      	ldrpl	r2, [r4, #40]	; 0x28
 8000daa:	f442 7200 	orrpl.w	r2, r2, #512	; 0x200
 8000dae:	62a2      	strpl	r2, [r4, #40]	; 0x28
 8000db0:	689a      	ldr	r2, [r3, #8]
 8000db2:	f402 2260 	and.w	r2, r2, #917504	; 0xe0000
 8000db6:	f5b2 2f60 	cmp.w	r2, #917504	; 0xe0000
 8000dba:	d110      	bne.n	8000dde <HAL_ADC_IRQHandler+0x4e>
 8000dbc:	7b22      	ldrb	r2, [r4, #12]
 8000dbe:	b972      	cbnz	r2, 8000dde <HAL_ADC_IRQHandler+0x4e>
 8000dc0:	685a      	ldr	r2, [r3, #4]
 8000dc2:	f022 0220 	bic.w	r2, r2, #32
 8000dc6:	605a      	str	r2, [r3, #4]
 8000dc8:	6aa3      	ldr	r3, [r4, #40]	; 0x28
 8000dca:	f423 7380 	bic.w	r3, r3, #256	; 0x100
 8000dce:	62a3      	str	r3, [r4, #40]	; 0x28
 8000dd0:	6aa3      	ldr	r3, [r4, #40]	; 0x28
 8000dd2:	04d8      	lsls	r0, r3, #19
 8000dd4:	bf5e      	ittt	pl
 8000dd6:	6aa3      	ldrpl	r3, [r4, #40]	; 0x28
 8000dd8:	f043 0301 	orrpl.w	r3, r3, #1
 8000ddc:	62a3      	strpl	r3, [r4, #40]	; 0x28
 8000dde:	4620      	mov	r0, r4
 8000de0:	f7ff fbc0 	bl	8000564 <HAL_ADC_ConvCpltCallback>
 8000de4:	f06f 0212 	mvn.w	r2, #18
 8000de8:	6823      	ldr	r3, [r4, #0]
 8000dea:	601a      	str	r2, [r3, #0]
 8000dec:	0631      	lsls	r1, r6, #24
 8000dee:	d530      	bpl.n	8000e52 <HAL_ADC_IRQHandler+0xc2>
 8000df0:	076a      	lsls	r2, r5, #29
 8000df2:	d52e      	bpl.n	8000e52 <HAL_ADC_IRQHandler+0xc2>
 8000df4:	6aa3      	ldr	r3, [r4, #40]	; 0x28
 8000df6:	06db      	lsls	r3, r3, #27
 8000df8:	bf5e      	ittt	pl
 8000dfa:	6aa3      	ldrpl	r3, [r4, #40]	; 0x28
 8000dfc:	f443 5300 	orrpl.w	r3, r3, #8192	; 0x2000
 8000e00:	62a3      	strpl	r3, [r4, #40]	; 0x28
 8000e02:	6823      	ldr	r3, [r4, #0]
 8000e04:	689a      	ldr	r2, [r3, #8]
 8000e06:	f402 42e0 	and.w	r2, r2, #28672	; 0x7000
 8000e0a:	f5b2 4fe0 	cmp.w	r2, #28672	; 0x7000
 8000e0e:	d00a      	beq.n	8000e26 <HAL_ADC_IRQHandler+0x96>
 8000e10:	685a      	ldr	r2, [r3, #4]
 8000e12:	0550      	lsls	r0, r2, #21
 8000e14:	d416      	bmi.n	8000e44 <HAL_ADC_IRQHandler+0xb4>
 8000e16:	689a      	ldr	r2, [r3, #8]
 8000e18:	f402 2260 	and.w	r2, r2, #917504	; 0xe0000
 8000e1c:	f5b2 2f60 	cmp.w	r2, #917504	; 0xe0000
 8000e20:	d110      	bne.n	8000e44 <HAL_ADC_IRQHandler+0xb4>
 8000e22:	7b22      	ldrb	r2, [r4, #12]
 8000e24:	b972      	cbnz	r2, 8000e44 <HAL_ADC_IRQHandler+0xb4>
 8000e26:	685a      	ldr	r2, [r3, #4]
 8000e28:	f022 0280 	bic.w	r2, r2, #128	; 0x80
 8000e2c:	605a      	str	r2, [r3, #4]
 8000e2e:	6aa3      	ldr	r3, [r4, #40]	; 0x28
 8000e30:	f423 5380 	bic.w	r3, r3, #4096	; 0x1000
 8000e34:	62a3      	str	r3, [r4, #40]	; 0x28
 8000e36:	6aa3      	ldr	r3, [r4, #40]	; 0x28
 8000e38:	05d9      	lsls	r1, r3, #23
 8000e3a:	bf5e      	ittt	pl
 8000e3c:	6aa3      	ldrpl	r3, [r4, #40]	; 0x28
 8000e3e:	f043 0301 	orrpl.w	r3, r3, #1
 8000e42:	62a3      	strpl	r3, [r4, #40]	; 0x28
 8000e44:	4620      	mov	r0, r4
 8000e46:	f000 fa0f 	bl	8001268 <HAL_ADCEx_InjectedConvCpltCallback>
 8000e4a:	f06f 020c 	mvn.w	r2, #12
 8000e4e:	6823      	ldr	r3, [r4, #0]
 8000e50:	601a      	str	r2, [r3, #0]
 8000e52:	0672      	lsls	r2, r6, #25
 8000e54:	d50c      	bpl.n	8000e70 <HAL_ADC_IRQHandler+0xe0>
 8000e56:	07eb      	lsls	r3, r5, #31
 8000e58:	d50a      	bpl.n	8000e70 <HAL_ADC_IRQHandler+0xe0>
 8000e5a:	6aa3      	ldr	r3, [r4, #40]	; 0x28
 8000e5c:	4620      	mov	r0, r4
 8000e5e:	f443 3380 	orr.w	r3, r3, #65536	; 0x10000
 8000e62:	62a3      	str	r3, [r4, #40]	; 0x28
 8000e64:	f7ff ff93 	bl	8000d8e <HAL_ADC_LevelOutOfWindowCallback>
 8000e68:	f06f 0201 	mvn.w	r2, #1
 8000e6c:	6823      	ldr	r3, [r4, #0]
 8000e6e:	601a      	str	r2, [r3, #0]
 8000e70:	bd70      	pop	{r4, r5, r6, pc}

08000e72 <HAL_ADC_ErrorCallback>:
 8000e72:	4770      	bx	lr

08000e74 <ADC_DMAError>:
 8000e74:	6a40      	ldr	r0, [r0, #36]	; 0x24
 8000e76:	b508      	push	{r3, lr}
 8000e78:	6a83      	ldr	r3, [r0, #40]	; 0x28
 8000e7a:	f043 0340 	orr.w	r3, r3, #64	; 0x40
 8000e7e:	6283      	str	r3, [r0, #40]	; 0x28
 8000e80:	6ac3      	ldr	r3, [r0, #44]	; 0x2c
 8000e82:	f043 0304 	orr.w	r3, r3, #4
 8000e86:	62c3      	str	r3, [r0, #44]	; 0x2c
 8000e88:	f7ff fff3 	bl	8000e72 <HAL_ADC_ErrorCallback>
 8000e8c:	bd08      	pop	{r3, pc}
	...

08000e90 <HAL_ADC_ConfigChannel>:
 8000e90:	2300      	movs	r3, #0
 8000e92:	b573      	push	{r0, r1, r4, r5, r6, lr}
 8000e94:	9301      	str	r3, [sp, #4]
 8000e96:	f890 3024 	ldrb.w	r3, [r0, #36]	; 0x24
 8000e9a:	4604      	mov	r4, r0
 8000e9c:	2b01      	cmp	r3, #1
 8000e9e:	d06c      	beq.n	8000f7a <HAL_ADC_ConfigChannel+0xea>
 8000ea0:	2301      	movs	r3, #1
 8000ea2:	f880 3024 	strb.w	r3, [r0, #36]	; 0x24
 8000ea6:	684d      	ldr	r5, [r1, #4]
 8000ea8:	6802      	ldr	r2, [r0, #0]
 8000eaa:	2d06      	cmp	r5, #6
 8000eac:	6808      	ldr	r0, [r1, #0]
 8000eae:	eb05 0385 	add.w	r3, r5, r5, lsl #2
 8000eb2:	d822      	bhi.n	8000efa <HAL_ADC_ConfigChannel+0x6a>
 8000eb4:	261f      	movs	r6, #31
 8000eb6:	6b55      	ldr	r5, [r2, #52]	; 0x34
 8000eb8:	3b05      	subs	r3, #5
 8000eba:	409e      	lsls	r6, r3
 8000ebc:	ea25 0506 	bic.w	r5, r5, r6
 8000ec0:	fa00 f303 	lsl.w	r3, r0, r3
 8000ec4:	432b      	orrs	r3, r5
 8000ec6:	6353      	str	r3, [r2, #52]	; 0x34
 8000ec8:	2809      	cmp	r0, #9
 8000eca:	688b      	ldr	r3, [r1, #8]
 8000ecc:	eb00 0540 	add.w	r5, r0, r0, lsl #1
 8000ed0:	f04f 0107 	mov.w	r1, #7
 8000ed4:	d929      	bls.n	8000f2a <HAL_ADC_ConfigChannel+0x9a>
 8000ed6:	68d6      	ldr	r6, [r2, #12]
 8000ed8:	3d1e      	subs	r5, #30
 8000eda:	40a9      	lsls	r1, r5
 8000edc:	ea26 0101 	bic.w	r1, r6, r1
 8000ee0:	40ab      	lsls	r3, r5
 8000ee2:	430b      	orrs	r3, r1
 8000ee4:	60d3      	str	r3, [r2, #12]
 8000ee6:	f1a0 0310 	sub.w	r3, r0, #16
 8000eea:	2b01      	cmp	r3, #1
 8000eec:	d925      	bls.n	8000f3a <HAL_ADC_ConfigChannel+0xaa>
 8000eee:	2000      	movs	r0, #0
 8000ef0:	2300      	movs	r3, #0
 8000ef2:	f884 3024 	strb.w	r3, [r4, #36]	; 0x24
 8000ef6:	b002      	add	sp, #8
 8000ef8:	bd70      	pop	{r4, r5, r6, pc}
 8000efa:	2d0c      	cmp	r5, #12
 8000efc:	f04f 051f 	mov.w	r5, #31
 8000f00:	d809      	bhi.n	8000f16 <HAL_ADC_ConfigChannel+0x86>
 8000f02:	6b16      	ldr	r6, [r2, #48]	; 0x30
 8000f04:	3b23      	subs	r3, #35	; 0x23
 8000f06:	409d      	lsls	r5, r3
 8000f08:	ea26 0505 	bic.w	r5, r6, r5
 8000f0c:	fa00 f303 	lsl.w	r3, r0, r3
 8000f10:	432b      	orrs	r3, r5
 8000f12:	6313      	str	r3, [r2, #48]	; 0x30
 8000f14:	e7d8      	b.n	8000ec8 <HAL_ADC_ConfigChannel+0x38>
 8000f16:	6ad6      	ldr	r6, [r2, #44]	; 0x2c
 8000f18:	3b41      	subs	r3, #65	; 0x41
 8000f1a:	409d      	lsls	r5, r3
 8000f1c:	ea26 0505 	bic.w	r5, r6, r5
 8000f20:	fa00 f303 	lsl.w	r3, r0, r3
 8000f24:	432b      	orrs	r3, r5
 8000f26:	62d3      	str	r3, [r2, #44]	; 0x2c
 8000f28:	e7ce      	b.n	8000ec8 <HAL_ADC_ConfigChannel+0x38>
 8000f2a:	6910      	ldr	r0, [r2, #16]
 8000f2c:	40a9      	lsls	r1, r5
 8000f2e:	ea20 0101 	bic.w	r1, r0, r1
 8000f32:	40ab      	lsls	r3, r5
 8000f34:	430b      	orrs	r3, r1
 8000f36:	6113      	str	r3, [r2, #16]
 8000f38:	e7d9      	b.n	8000eee <HAL_ADC_ConfigChannel+0x5e>
 8000f3a:	4b11      	ldr	r3, [pc, #68]	; (8000f80 <HAL_ADC_ConfigChannel+0xf0>)
 8000f3c:	429a      	cmp	r2, r3
 8000f3e:	d116      	bne.n	8000f6e <HAL_ADC_ConfigChannel+0xde>
 8000f40:	6893      	ldr	r3, [r2, #8]
 8000f42:	021b      	lsls	r3, r3, #8
 8000f44:	d4d3      	bmi.n	8000eee <HAL_ADC_ConfigChannel+0x5e>
 8000f46:	6893      	ldr	r3, [r2, #8]
 8000f48:	2810      	cmp	r0, #16
 8000f4a:	f443 0300 	orr.w	r3, r3, #8388608	; 0x800000
 8000f4e:	6093      	str	r3, [r2, #8]
 8000f50:	d1cd      	bne.n	8000eee <HAL_ADC_ConfigChannel+0x5e>
 8000f52:	4b0c      	ldr	r3, [pc, #48]	; (8000f84 <HAL_ADC_ConfigChannel+0xf4>)
 8000f54:	4a0c      	ldr	r2, [pc, #48]	; (8000f88 <HAL_ADC_ConfigChannel+0xf8>)
 8000f56:	681b      	ldr	r3, [r3, #0]
 8000f58:	fbb3 f3f2 	udiv	r3, r3, r2
 8000f5c:	220a      	movs	r2, #10
 8000f5e:	4353      	muls	r3, r2
 8000f60:	9301      	str	r3, [sp, #4]
 8000f62:	9b01      	ldr	r3, [sp, #4]
 8000f64:	2b00      	cmp	r3, #0
 8000f66:	d0c2      	beq.n	8000eee <HAL_ADC_ConfigChannel+0x5e>
 8000f68:	9b01      	ldr	r3, [sp, #4]
 8000f6a:	3b01      	subs	r3, #1
 8000f6c:	e7f8      	b.n	8000f60 <HAL_ADC_ConfigChannel+0xd0>
 8000f6e:	6aa3      	ldr	r3, [r4, #40]	; 0x28
 8000f70:	2001      	movs	r0, #1
 8000f72:	f043 0320 	orr.w	r3, r3, #32
 8000f76:	62a3      	str	r3, [r4, #40]	; 0x28
 8000f78:	e7ba      	b.n	8000ef0 <HAL_ADC_ConfigChannel+0x60>
 8000f7a:	2002      	movs	r0, #2
 8000f7c:	e7bb      	b.n	8000ef6 <HAL_ADC_ConfigChannel+0x66>
 8000f7e:	bf00      	nop
 8000f80:	40012400 	.word	0x40012400
 8000f84:	20000000 	.word	0x20000000
 8000f88:	000f4240 	.word	0x000f4240

08000f8c <ADC_Enable>:
 8000f8c:	2300      	movs	r3, #0
 8000f8e:	b537      	push	{r0, r1, r2, r4, r5, lr}
 8000f90:	9301      	str	r3, [sp, #4]
 8000f92:	6803      	ldr	r3, [r0, #0]
 8000f94:	4604      	mov	r4, r0
 8000f96:	689a      	ldr	r2, [r3, #8]
 8000f98:	07d2      	lsls	r2, r2, #31
 8000f9a:	d502      	bpl.n	8000fa2 <ADC_Enable+0x16>
 8000f9c:	2000      	movs	r0, #0
 8000f9e:	b003      	add	sp, #12
 8000fa0:	bd30      	pop	{r4, r5, pc}
 8000fa2:	689a      	ldr	r2, [r3, #8]
 8000fa4:	f042 0201 	orr.w	r2, r2, #1
 8000fa8:	609a      	str	r2, [r3, #8]
 8000faa:	4b14      	ldr	r3, [pc, #80]	; (8000ffc <ADC_Enable+0x70>)
 8000fac:	4a14      	ldr	r2, [pc, #80]	; (8001000 <ADC_Enable+0x74>)
 8000fae:	681b      	ldr	r3, [r3, #0]
 8000fb0:	fbb3 f3f2 	udiv	r3, r3, r2
 8000fb4:	9301      	str	r3, [sp, #4]
 8000fb6:	9b01      	ldr	r3, [sp, #4]
 8000fb8:	b9e3      	cbnz	r3, 8000ff4 <ADC_Enable+0x68>
 8000fba:	f7ff fea3 	bl	8000d04 <HAL_GetTick>
 8000fbe:	4605      	mov	r5, r0
 8000fc0:	6823      	ldr	r3, [r4, #0]
 8000fc2:	689b      	ldr	r3, [r3, #8]
 8000fc4:	07db      	lsls	r3, r3, #31
 8000fc6:	d4e9      	bmi.n	8000f9c <ADC_Enable+0x10>
 8000fc8:	f7ff fe9c 	bl	8000d04 <HAL_GetTick>
 8000fcc:	1b40      	subs	r0, r0, r5
 8000fce:	2802      	cmp	r0, #2
 8000fd0:	d9f6      	bls.n	8000fc0 <ADC_Enable+0x34>
 8000fd2:	6823      	ldr	r3, [r4, #0]
 8000fd4:	689b      	ldr	r3, [r3, #8]
 8000fd6:	f013 0301 	ands.w	r3, r3, #1
 8000fda:	d1f1      	bne.n	8000fc0 <ADC_Enable+0x34>
 8000fdc:	6aa2      	ldr	r2, [r4, #40]	; 0x28
 8000fde:	2001      	movs	r0, #1
 8000fe0:	f042 0210 	orr.w	r2, r2, #16
 8000fe4:	62a2      	str	r2, [r4, #40]	; 0x28
 8000fe6:	6ae2      	ldr	r2, [r4, #44]	; 0x2c
 8000fe8:	f884 3024 	strb.w	r3, [r4, #36]	; 0x24
 8000fec:	f042 0201 	orr.w	r2, r2, #1
 8000ff0:	62e2      	str	r2, [r4, #44]	; 0x2c
 8000ff2:	e7d4      	b.n	8000f9e <ADC_Enable+0x12>
 8000ff4:	9b01      	ldr	r3, [sp, #4]
 8000ff6:	3b01      	subs	r3, #1
 8000ff8:	e7dc      	b.n	8000fb4 <ADC_Enable+0x28>
 8000ffa:	bf00      	nop
 8000ffc:	20000000 	.word	0x20000000
 8001000:	000f4240 	.word	0x000f4240

08001004 <HAL_ADC_Start_DMA>:
 8001004:	e92d 41f0 	stmdb	sp!, {r4, r5, r6, r7, r8, lr}
 8001008:	4b40      	ldr	r3, [pc, #256]	; (800110c <HAL_ADC_Start_DMA+0x108>)
 800100a:	4690      	mov	r8, r2
 800100c:	6802      	ldr	r2, [r0, #0]
 800100e:	4604      	mov	r4, r0
 8001010:	429a      	cmp	r2, r3
 8001012:	460f      	mov	r7, r1
 8001014:	d002      	beq.n	800101c <HAL_ADC_Start_DMA+0x18>
 8001016:	493e      	ldr	r1, [pc, #248]	; (8001110 <HAL_ADC_Start_DMA+0x10c>)
 8001018:	428a      	cmp	r2, r1
 800101a:	d103      	bne.n	8001024 <HAL_ADC_Start_DMA+0x20>
 800101c:	685b      	ldr	r3, [r3, #4]
 800101e:	f413 2f70 	tst.w	r3, #983040	; 0xf0000
 8001022:	d16e      	bne.n	8001102 <HAL_ADC_Start_DMA+0xfe>
 8001024:	f894 3024 	ldrb.w	r3, [r4, #36]	; 0x24
 8001028:	2b01      	cmp	r3, #1
 800102a:	d06c      	beq.n	8001106 <HAL_ADC_Start_DMA+0x102>
 800102c:	2301      	movs	r3, #1
 800102e:	4620      	mov	r0, r4
 8001030:	f884 3024 	strb.w	r3, [r4, #36]	; 0x24
 8001034:	f7ff ffaa 	bl	8000f8c <ADC_Enable>
 8001038:	4606      	mov	r6, r0
 800103a:	2800      	cmp	r0, #0
 800103c:	d15d      	bne.n	80010fa <HAL_ADC_Start_DMA+0xf6>
 800103e:	6aa5      	ldr	r5, [r4, #40]	; 0x28
 8001040:	6821      	ldr	r1, [r4, #0]
 8001042:	4b33      	ldr	r3, [pc, #204]	; (8001110 <HAL_ADC_Start_DMA+0x10c>)
 8001044:	f425 6570 	bic.w	r5, r5, #3840	; 0xf00
 8001048:	f025 0501 	bic.w	r5, r5, #1
 800104c:	f445 7580 	orr.w	r5, r5, #256	; 0x100
 8001050:	4299      	cmp	r1, r3
 8001052:	62a5      	str	r5, [r4, #40]	; 0x28
 8001054:	d104      	bne.n	8001060 <HAL_ADC_Start_DMA+0x5c>
 8001056:	4a2d      	ldr	r2, [pc, #180]	; (800110c <HAL_ADC_Start_DMA+0x108>)
 8001058:	6853      	ldr	r3, [r2, #4]
 800105a:	f413 2f70 	tst.w	r3, #983040	; 0xf0000
 800105e:	d13e      	bne.n	80010de <HAL_ADC_Start_DMA+0xda>
 8001060:	6aa3      	ldr	r3, [r4, #40]	; 0x28
 8001062:	f423 1380 	bic.w	r3, r3, #1048576	; 0x100000
 8001066:	62a3      	str	r3, [r4, #40]	; 0x28
 8001068:	684b      	ldr	r3, [r1, #4]
 800106a:	055a      	lsls	r2, r3, #21
 800106c:	d505      	bpl.n	800107a <HAL_ADC_Start_DMA+0x76>
 800106e:	6aa3      	ldr	r3, [r4, #40]	; 0x28
 8001070:	f423 5340 	bic.w	r3, r3, #12288	; 0x3000
 8001074:	f443 5380 	orr.w	r3, r3, #4096	; 0x1000
 8001078:	62a3      	str	r3, [r4, #40]	; 0x28
 800107a:	6aa3      	ldr	r3, [r4, #40]	; 0x28
 800107c:	6a20      	ldr	r0, [r4, #32]
 800107e:	f413 5380 	ands.w	r3, r3, #4096	; 0x1000
 8001082:	bf18      	it	ne
 8001084:	6ae3      	ldrne	r3, [r4, #44]	; 0x2c
 8001086:	463a      	mov	r2, r7
 8001088:	bf18      	it	ne
 800108a:	f023 0306 	bicne.w	r3, r3, #6
 800108e:	62e3      	str	r3, [r4, #44]	; 0x2c
 8001090:	2300      	movs	r3, #0
 8001092:	f884 3024 	strb.w	r3, [r4, #36]	; 0x24
 8001096:	4b1f      	ldr	r3, [pc, #124]	; (8001114 <HAL_ADC_Start_DMA+0x110>)
 8001098:	314c      	adds	r1, #76	; 0x4c
 800109a:	6283      	str	r3, [r0, #40]	; 0x28
 800109c:	4b1e      	ldr	r3, [pc, #120]	; (8001118 <HAL_ADC_Start_DMA+0x114>)
 800109e:	62c3      	str	r3, [r0, #44]	; 0x2c
 80010a0:	4b1e      	ldr	r3, [pc, #120]	; (800111c <HAL_ADC_Start_DMA+0x118>)
 80010a2:	6303      	str	r3, [r0, #48]	; 0x30
 80010a4:	f06f 0302 	mvn.w	r3, #2
 80010a8:	f841 3c4c 	str.w	r3, [r1, #-76]
 80010ac:	f851 3c44 	ldr.w	r3, [r1, #-68]
 80010b0:	f443 7380 	orr.w	r3, r3, #256	; 0x100
 80010b4:	f841 3c44 	str.w	r3, [r1, #-68]
 80010b8:	4643      	mov	r3, r8
 80010ba:	f000 f96f 	bl	800139c <HAL_DMA_Start_IT>
 80010be:	6823      	ldr	r3, [r4, #0]
 80010c0:	689a      	ldr	r2, [r3, #8]
 80010c2:	f402 2260 	and.w	r2, r2, #917504	; 0xe0000
 80010c6:	f5b2 2f60 	cmp.w	r2, #917504	; 0xe0000
 80010ca:	689a      	ldr	r2, [r3, #8]
 80010cc:	bf0c      	ite	eq
 80010ce:	f442 02a0 	orreq.w	r2, r2, #5242880	; 0x500000
 80010d2:	f442 1280 	orrne.w	r2, r2, #1048576	; 0x100000
 80010d6:	609a      	str	r2, [r3, #8]
 80010d8:	4630      	mov	r0, r6
 80010da:	e8bd 81f0 	ldmia.w	sp!, {r4, r5, r6, r7, r8, pc}
 80010de:	6aa3      	ldr	r3, [r4, #40]	; 0x28
 80010e0:	f443 1380 	orr.w	r3, r3, #1048576	; 0x100000
 80010e4:	62a3      	str	r3, [r4, #40]	; 0x28
 80010e6:	6853      	ldr	r3, [r2, #4]
 80010e8:	055b      	lsls	r3, r3, #21
 80010ea:	bf41      	itttt	mi
 80010ec:	6aa0      	ldrmi	r0, [r4, #40]	; 0x28
 80010ee:	f420 5040 	bicmi.w	r0, r0, #12288	; 0x3000
 80010f2:	f440 5080 	orrmi.w	r0, r0, #4096	; 0x1000
 80010f6:	62a0      	strmi	r0, [r4, #40]	; 0x28
 80010f8:	e7bf      	b.n	800107a <HAL_ADC_Start_DMA+0x76>
 80010fa:	2300      	movs	r3, #0
 80010fc:	f884 3024 	strb.w	r3, [r4, #36]	; 0x24
 8001100:	e7ea      	b.n	80010d8 <HAL_ADC_Start_DMA+0xd4>
 8001102:	2601      	movs	r6, #1
 8001104:	e7e8      	b.n	80010d8 <HAL_ADC_Start_DMA+0xd4>
 8001106:	2602      	movs	r6, #2
 8001108:	e7e6      	b.n	80010d8 <HAL_ADC_Start_DMA+0xd4>
 800110a:	bf00      	nop
 800110c:	40012400 	.word	0x40012400
 8001110:	40012800 	.word	0x40012800
 8001114:	08000d35 	.word	0x08000d35
 8001118:	08000d85 	.word	0x08000d85
 800111c:	08000e75 	.word	0x08000e75

08001120 <ADC_ConversionStop_Disable>:
 8001120:	b538      	push	{r3, r4, r5, lr}
 8001122:	6803      	ldr	r3, [r0, #0]
 8001124:	4604      	mov	r4, r0
 8001126:	689a      	ldr	r2, [r3, #8]
 8001128:	07d1      	lsls	r1, r2, #31
 800112a:	d401      	bmi.n	8001130 <ADC_ConversionStop_Disable+0x10>
 800112c:	2000      	movs	r0, #0
 800112e:	bd38      	pop	{r3, r4, r5, pc}
 8001130:	689a      	ldr	r2, [r3, #8]
 8001132:	f022 0201 	bic.w	r2, r2, #1
 8001136:	609a      	str	r2, [r3, #8]
 8001138:	f7ff fde4 	bl	8000d04 <HAL_GetTick>
 800113c:	4605      	mov	r5, r0
 800113e:	6823      	ldr	r3, [r4, #0]
 8001140:	689b      	ldr	r3, [r3, #8]
 8001142:	07db      	lsls	r3, r3, #31
 8001144:	d5f2      	bpl.n	800112c <ADC_ConversionStop_Disable+0xc>
 8001146:	f7ff fddd 	bl	8000d04 <HAL_GetTick>
 800114a:	1b40      	subs	r0, r0, r5
 800114c:	2802      	cmp	r0, #2
 800114e:	d9f6      	bls.n	800113e <ADC_ConversionStop_Disable+0x1e>
 8001150:	6823      	ldr	r3, [r4, #0]
 8001152:	689b      	ldr	r3, [r3, #8]
 8001154:	07da      	lsls	r2, r3, #31
 8001156:	d5f2      	bpl.n	800113e <ADC_ConversionStop_Disable+0x1e>
 8001158:	6aa3      	ldr	r3, [r4, #40]	; 0x28
 800115a:	2001      	movs	r0, #1
 800115c:	f043 0310 	orr.w	r3, r3, #16
 8001160:	62a3      	str	r3, [r4, #40]	; 0x28
 8001162:	6ae3      	ldr	r3, [r4, #44]	; 0x2c
 8001164:	f043 0301 	orr.w	r3, r3, #1
 8001168:	62e3      	str	r3, [r4, #44]	; 0x2c
 800116a:	e7e0      	b.n	800112e <ADC_ConversionStop_Disable+0xe>

0800116c <HAL_ADC_Init>:
 800116c:	b5f8      	push	{r3, r4, r5, r6, r7, lr}
 800116e:	4604      	mov	r4, r0
 8001170:	2800      	cmp	r0, #0
 8001172:	d06e      	beq.n	8001252 <HAL_ADC_Init+0xe6>
 8001174:	6a83      	ldr	r3, [r0, #40]	; 0x28
 8001176:	b923      	cbnz	r3, 8001182 <HAL_ADC_Init+0x16>
 8001178:	62c3      	str	r3, [r0, #44]	; 0x2c
 800117a:	f880 3024 	strb.w	r3, [r0, #36]	; 0x24
 800117e:	f7ff fc41 	bl	8000a04 <HAL_ADC_MspInit>
 8001182:	4620      	mov	r0, r4
 8001184:	f7ff ffcc 	bl	8001120 <ADC_ConversionStop_Disable>
 8001188:	6aa3      	ldr	r3, [r4, #40]	; 0x28
 800118a:	f013 0310 	ands.w	r3, r3, #16
 800118e:	d162      	bne.n	8001256 <HAL_ADC_Init+0xea>
 8001190:	2800      	cmp	r0, #0
 8001192:	d160      	bne.n	8001256 <HAL_ADC_Init+0xea>
 8001194:	6aa2      	ldr	r2, [r4, #40]	; 0x28
 8001196:	69e5      	ldr	r5, [r4, #28]
 8001198:	6861      	ldr	r1, [r4, #4]
 800119a:	f422 5288 	bic.w	r2, r2, #4352	; 0x1100
 800119e:	f022 0202 	bic.w	r2, r2, #2
 80011a2:	f042 0202 	orr.w	r2, r2, #2
 80011a6:	4329      	orrs	r1, r5
 80011a8:	68a5      	ldr	r5, [r4, #8]
 80011aa:	62a2      	str	r2, [r4, #40]	; 0x28
 80011ac:	7b22      	ldrb	r2, [r4, #12]
 80011ae:	f5b5 7f80 	cmp.w	r5, #256	; 0x100
 80011b2:	ea41 0142 	orr.w	r1, r1, r2, lsl #1
 80011b6:	d037      	beq.n	8001228 <HAL_ADC_Init+0xbc>
 80011b8:	2d01      	cmp	r5, #1
 80011ba:	bf14      	ite	ne
 80011bc:	2700      	movne	r7, #0
 80011be:	f44f 7780 	moveq.w	r7, #256	; 0x100
 80011c2:	7d26      	ldrb	r6, [r4, #20]
 80011c4:	2e01      	cmp	r6, #1
 80011c6:	d106      	bne.n	80011d6 <HAL_ADC_Init+0x6a>
 80011c8:	bb82      	cbnz	r2, 800122c <HAL_ADC_Init+0xc0>
 80011ca:	69a2      	ldr	r2, [r4, #24]
 80011cc:	3a01      	subs	r2, #1
 80011ce:	ea47 3642 	orr.w	r6, r7, r2, lsl #13
 80011d2:	f446 6700 	orr.w	r7, r6, #2048	; 0x800
 80011d6:	6822      	ldr	r2, [r4, #0]
 80011d8:	f5b5 7f80 	cmp.w	r5, #256	; 0x100
 80011dc:	6856      	ldr	r6, [r2, #4]
 80011de:	f426 4669 	bic.w	r6, r6, #59648	; 0xe900
 80011e2:	ea46 0607 	orr.w	r6, r6, r7
 80011e6:	6056      	str	r6, [r2, #4]
 80011e8:	6897      	ldr	r7, [r2, #8]
 80011ea:	4e1d      	ldr	r6, [pc, #116]	; (8001260 <HAL_ADC_Init+0xf4>)
 80011ec:	ea06 0607 	and.w	r6, r6, r7
 80011f0:	ea46 0601 	orr.w	r6, r6, r1
 80011f4:	6096      	str	r6, [r2, #8]
 80011f6:	d001      	beq.n	80011fc <HAL_ADC_Init+0x90>
 80011f8:	2d01      	cmp	r5, #1
 80011fa:	d102      	bne.n	8001202 <HAL_ADC_Init+0x96>
 80011fc:	6923      	ldr	r3, [r4, #16]
 80011fe:	3b01      	subs	r3, #1
 8001200:	051b      	lsls	r3, r3, #20
 8001202:	6ad5      	ldr	r5, [r2, #44]	; 0x2c
 8001204:	f425 0570 	bic.w	r5, r5, #15728640	; 0xf00000
 8001208:	432b      	orrs	r3, r5
 800120a:	62d3      	str	r3, [r2, #44]	; 0x2c
 800120c:	6892      	ldr	r2, [r2, #8]
 800120e:	4b15      	ldr	r3, [pc, #84]	; (8001264 <HAL_ADC_Init+0xf8>)
 8001210:	4013      	ands	r3, r2
 8001212:	4299      	cmp	r1, r3
 8001214:	d113      	bne.n	800123e <HAL_ADC_Init+0xd2>
 8001216:	2300      	movs	r3, #0
 8001218:	62e3      	str	r3, [r4, #44]	; 0x2c
 800121a:	6aa3      	ldr	r3, [r4, #40]	; 0x28
 800121c:	f023 0303 	bic.w	r3, r3, #3
 8001220:	f043 0301 	orr.w	r3, r3, #1
 8001224:	62a3      	str	r3, [r4, #40]	; 0x28
 8001226:	bdf8      	pop	{r3, r4, r5, r6, r7, pc}
 8001228:	462f      	mov	r7, r5
 800122a:	e7ca      	b.n	80011c2 <HAL_ADC_Init+0x56>
 800122c:	6aa2      	ldr	r2, [r4, #40]	; 0x28
 800122e:	f042 0220 	orr.w	r2, r2, #32
 8001232:	62a2      	str	r2, [r4, #40]	; 0x28
 8001234:	6ae2      	ldr	r2, [r4, #44]	; 0x2c
 8001236:	f042 0201 	orr.w	r2, r2, #1
 800123a:	62e2      	str	r2, [r4, #44]	; 0x2c
 800123c:	e7cb      	b.n	80011d6 <HAL_ADC_Init+0x6a>
 800123e:	6aa3      	ldr	r3, [r4, #40]	; 0x28
 8001240:	f023 0312 	bic.w	r3, r3, #18
 8001244:	f043 0310 	orr.w	r3, r3, #16
 8001248:	62a3      	str	r3, [r4, #40]	; 0x28
 800124a:	6ae3      	ldr	r3, [r4, #44]	; 0x2c
 800124c:	f043 0301 	orr.w	r3, r3, #1
 8001250:	62e3      	str	r3, [r4, #44]	; 0x2c
 8001252:	2001      	movs	r0, #1
 8001254:	e7e7      	b.n	8001226 <HAL_ADC_Init+0xba>
 8001256:	6aa3      	ldr	r3, [r4, #40]	; 0x28
 8001258:	f043 0310 	orr.w	r3, r3, #16
 800125c:	62a3      	str	r3, [r4, #40]	; 0x28
 800125e:	e7f8      	b.n	8001252 <HAL_ADC_Init+0xe6>
 8001260:	ffe1f7fd 	.word	0xffe1f7fd
 8001264:	ff1f0efe 	.word	0xff1f0efe

08001268 <HAL_ADCEx_InjectedConvCpltCallback>:
 8001268:	4770      	bx	lr
	...

0800126c <HAL_NVIC_SetPriorityGrouping>:
 800126c:	4907      	ldr	r1, [pc, #28]	; (800128c <HAL_NVIC_SetPriorityGrouping+0x20>)
 800126e:	0203      	lsls	r3, r0, #8
 8001270:	68ca      	ldr	r2, [r1, #12]
 8001272:	f403 63e0 	and.w	r3, r3, #1792	; 0x700
 8001276:	f422 62e0 	bic.w	r2, r2, #1792	; 0x700
 800127a:	0412      	lsls	r2, r2, #16
 800127c:	0c12      	lsrs	r2, r2, #16
 800127e:	4313      	orrs	r3, r2
 8001280:	f043 63bf 	orr.w	r3, r3, #100139008	; 0x5f80000
 8001284:	f443 3300 	orr.w	r3, r3, #131072	; 0x20000
 8001288:	60cb      	str	r3, [r1, #12]
 800128a:	4770      	bx	lr
 800128c:	e000ed00 	.word	0xe000ed00

08001290 <HAL_NVIC_SetPriority>:
 8001290:	4b16      	ldr	r3, [pc, #88]	; (80012ec <HAL_NVIC_SetPriority+0x5c>)
 8001292:	b530      	push	{r4, r5, lr}
 8001294:	68dc      	ldr	r4, [r3, #12]
 8001296:	f3c4 2402 	ubfx	r4, r4, #8, #3
 800129a:	f1c4 0307 	rsb	r3, r4, #7
 800129e:	1d25      	adds	r5, r4, #4
 80012a0:	2b04      	cmp	r3, #4
 80012a2:	bf28      	it	cs
 80012a4:	2304      	movcs	r3, #4
 80012a6:	2d06      	cmp	r5, #6
 80012a8:	f04f 35ff 	mov.w	r5, #4294967295
 80012ac:	bf98      	it	ls
 80012ae:	2400      	movls	r4, #0
 80012b0:	fa05 f303 	lsl.w	r3, r5, r3
 80012b4:	bf88      	it	hi
 80012b6:	3c03      	subhi	r4, #3
 80012b8:	ea21 0303 	bic.w	r3, r1, r3
 80012bc:	40a3      	lsls	r3, r4
 80012be:	fa05 f404 	lsl.w	r4, r5, r4
 80012c2:	ea22 0204 	bic.w	r2, r2, r4
 80012c6:	2800      	cmp	r0, #0
 80012c8:	ea43 0302 	orr.w	r3, r3, r2
 80012cc:	bfac      	ite	ge
 80012ce:	f100 4060 	addge.w	r0, r0, #3758096384	; 0xe0000000
 80012d2:	4a07      	ldrlt	r2, [pc, #28]	; (80012f0 <HAL_NVIC_SetPriority+0x60>)
 80012d4:	ea4f 1303 	mov.w	r3, r3, lsl #4
 80012d8:	b2db      	uxtb	r3, r3
 80012da:	bfab      	itete	ge
 80012dc:	f500 4061 	addge.w	r0, r0, #57600	; 0xe100
 80012e0:	f000 000f 	andlt.w	r0, r0, #15
 80012e4:	f880 3300 	strbge.w	r3, [r0, #768]	; 0x300
 80012e8:	5413      	strblt	r3, [r2, r0]
 80012ea:	bd30      	pop	{r4, r5, pc}
 80012ec:	e000ed00 	.word	0xe000ed00
 80012f0:	e000ed14 	.word	0xe000ed14

080012f4 <HAL_NVIC_EnableIRQ>:
 80012f4:	2800      	cmp	r0, #0
 80012f6:	db08      	blt.n	800130a <HAL_NVIC_EnableIRQ+0x16>
 80012f8:	2301      	movs	r3, #1
 80012fa:	0942      	lsrs	r2, r0, #5
 80012fc:	f000 001f 	and.w	r0, r0, #31
 8001300:	fa03 f000 	lsl.w	r0, r3, r0
 8001304:	4b01      	ldr	r3, [pc, #4]	; (800130c <HAL_NVIC_EnableIRQ+0x18>)
 8001306:	f843 0022 	str.w	r0, [r3, r2, lsl #2]
 800130a:	4770      	bx	lr
 800130c:	e000e100 	.word	0xe000e100

08001310 <HAL_SYSTICK_Config>:
 8001310:	3801      	subs	r0, #1
 8001312:	f1b0 7f80 	cmp.w	r0, #16777216	; 0x1000000
 8001316:	d20b      	bcs.n	8001330 <HAL_SYSTICK_Config+0x20>
 8001318:	f04f 23e0 	mov.w	r3, #3758153728	; 0xe000e000
 800131c:	21f0      	movs	r1, #240	; 0xf0
 800131e:	4a05      	ldr	r2, [pc, #20]	; (8001334 <HAL_SYSTICK_Config+0x24>)
 8001320:	6158      	str	r0, [r3, #20]
 8001322:	f882 1023 	strb.w	r1, [r2, #35]	; 0x23
 8001326:	2000      	movs	r0, #0
 8001328:	2207      	movs	r2, #7
 800132a:	6198      	str	r0, [r3, #24]
 800132c:	611a      	str	r2, [r3, #16]
 800132e:	4770      	bx	lr
 8001330:	2001      	movs	r0, #1
 8001332:	4770      	bx	lr
 8001334:	e000ed00 	.word	0xe000ed00

08001338 <HAL_DMA_Init>:
 8001338:	b510      	push	{r4, lr}
 800133a:	b348      	cbz	r0, 8001390 <HAL_DMA_Init+0x58>
 800133c:	2214      	movs	r2, #20
 800133e:	6801      	ldr	r1, [r0, #0]
 8001340:	4b14      	ldr	r3, [pc, #80]	; (8001394 <HAL_DMA_Init+0x5c>)
 8001342:	440b      	add	r3, r1
 8001344:	fbb3 f3f2 	udiv	r3, r3, r2
 8001348:	009b      	lsls	r3, r3, #2
 800134a:	6403      	str	r3, [r0, #64]	; 0x40
 800134c:	4b12      	ldr	r3, [pc, #72]	; (8001398 <HAL_DMA_Init+0x60>)
 800134e:	63c3      	str	r3, [r0, #60]	; 0x3c
 8001350:	2302      	movs	r3, #2
 8001352:	f880 3021 	strb.w	r3, [r0, #33]	; 0x21
 8001356:	e9d0 3401 	ldrd	r3, r4, [r0, #4]
 800135a:	4323      	orrs	r3, r4
 800135c:	68c4      	ldr	r4, [r0, #12]
 800135e:	680a      	ldr	r2, [r1, #0]
 8001360:	4323      	orrs	r3, r4
 8001362:	6904      	ldr	r4, [r0, #16]
 8001364:	f422 527f 	bic.w	r2, r2, #16320	; 0x3fc0
 8001368:	4323      	orrs	r3, r4
 800136a:	6944      	ldr	r4, [r0, #20]
 800136c:	f022 0230 	bic.w	r2, r2, #48	; 0x30
 8001370:	4323      	orrs	r3, r4
 8001372:	6984      	ldr	r4, [r0, #24]
 8001374:	4323      	orrs	r3, r4
 8001376:	69c4      	ldr	r4, [r0, #28]
 8001378:	4323      	orrs	r3, r4
 800137a:	4313      	orrs	r3, r2
 800137c:	600b      	str	r3, [r1, #0]
 800137e:	2201      	movs	r2, #1
 8001380:	2300      	movs	r3, #0
 8001382:	6383      	str	r3, [r0, #56]	; 0x38
 8001384:	f880 3020 	strb.w	r3, [r0, #32]
 8001388:	f880 2021 	strb.w	r2, [r0, #33]	; 0x21
 800138c:	4618      	mov	r0, r3
 800138e:	bd10      	pop	{r4, pc}
 8001390:	2001      	movs	r0, #1
 8001392:	e7fc      	b.n	800138e <HAL_DMA_Init+0x56>
 8001394:	bffdfff8 	.word	0xbffdfff8
 8001398:	40020000 	.word	0x40020000

0800139c <HAL_DMA_Start_IT>:
 800139c:	b5f0      	push	{r4, r5, r6, r7, lr}
 800139e:	f890 4020 	ldrb.w	r4, [r0, #32]
 80013a2:	2c01      	cmp	r4, #1
 80013a4:	d034      	beq.n	8001410 <HAL_DMA_Start_IT+0x74>
 80013a6:	2401      	movs	r4, #1
 80013a8:	f880 4020 	strb.w	r4, [r0, #32]
 80013ac:	f890 4021 	ldrb.w	r4, [r0, #33]	; 0x21
 80013b0:	2600      	movs	r6, #0
 80013b2:	2c01      	cmp	r4, #1
 80013b4:	b2e5      	uxtb	r5, r4
 80013b6:	f04f 0402 	mov.w	r4, #2
 80013ba:	d127      	bne.n	800140c <HAL_DMA_Start_IT+0x70>
 80013bc:	f880 4021 	strb.w	r4, [r0, #33]	; 0x21
 80013c0:	6804      	ldr	r4, [r0, #0]
 80013c2:	6386      	str	r6, [r0, #56]	; 0x38
 80013c4:	6826      	ldr	r6, [r4, #0]
 80013c6:	f026 0601 	bic.w	r6, r6, #1
 80013ca:	6026      	str	r6, [r4, #0]
 80013cc:	e9d0 670f 	ldrd	r6, r7, [r0, #60]	; 0x3c
 80013d0:	40bd      	lsls	r5, r7
 80013d2:	6075      	str	r5, [r6, #4]
 80013d4:	6063      	str	r3, [r4, #4]
 80013d6:	6843      	ldr	r3, [r0, #4]
 80013d8:	2b10      	cmp	r3, #16
 80013da:	6ac3      	ldr	r3, [r0, #44]	; 0x2c
 80013dc:	bf0b      	itete	eq
 80013de:	60a2      	streq	r2, [r4, #8]
 80013e0:	60a1      	strne	r1, [r4, #8]
 80013e2:	60e1      	streq	r1, [r4, #12]
 80013e4:	60e2      	strne	r2, [r4, #12]
 80013e6:	b14b      	cbz	r3, 80013fc <HAL_DMA_Start_IT+0x60>
 80013e8:	6823      	ldr	r3, [r4, #0]
 80013ea:	f043 030e 	orr.w	r3, r3, #14
 80013ee:	2000      	movs	r0, #0
 80013f0:	6023      	str	r3, [r4, #0]
 80013f2:	6823      	ldr	r3, [r4, #0]
 80013f4:	f043 0301 	orr.w	r3, r3, #1
 80013f8:	6023      	str	r3, [r4, #0]
 80013fa:	bdf0      	pop	{r4, r5, r6, r7, pc}
 80013fc:	6823      	ldr	r3, [r4, #0]
 80013fe:	f023 0304 	bic.w	r3, r3, #4
 8001402:	6023      	str	r3, [r4, #0]
 8001404:	6823      	ldr	r3, [r4, #0]
 8001406:	f043 030a 	orr.w	r3, r3, #10
 800140a:	e7f0      	b.n	80013ee <HAL_DMA_Start_IT+0x52>
 800140c:	f880 6020 	strb.w	r6, [r0, #32]
 8001410:	2002      	movs	r0, #2
 8001412:	e7f2      	b.n	80013fa <HAL_DMA_Start_IT+0x5e>

08001414 <HAL_DMA_Abort_IT>:
 8001414:	b510      	push	{r4, lr}
 8001416:	f890 3021 	ldrb.w	r3, [r0, #33]	; 0x21
 800141a:	2b02      	cmp	r3, #2
 800141c:	d003      	beq.n	8001426 <HAL_DMA_Abort_IT+0x12>
 800141e:	2304      	movs	r3, #4
 8001420:	6383      	str	r3, [r0, #56]	; 0x38
 8001422:	2001      	movs	r0, #1
 8001424:	bd10      	pop	{r4, pc}
 8001426:	6803      	ldr	r3, [r0, #0]
 8001428:	681a      	ldr	r2, [r3, #0]
 800142a:	f022 020e 	bic.w	r2, r2, #14
 800142e:	601a      	str	r2, [r3, #0]
 8001430:	681a      	ldr	r2, [r3, #0]
 8001432:	f022 0201 	bic.w	r2, r2, #1
 8001436:	601a      	str	r2, [r3, #0]
 8001438:	4a18      	ldr	r2, [pc, #96]	; (800149c <HAL_DMA_Abort_IT+0x88>)
 800143a:	4293      	cmp	r3, r2
 800143c:	d01f      	beq.n	800147e <HAL_DMA_Abort_IT+0x6a>
 800143e:	3214      	adds	r2, #20
 8001440:	4293      	cmp	r3, r2
 8001442:	d01e      	beq.n	8001482 <HAL_DMA_Abort_IT+0x6e>
 8001444:	3214      	adds	r2, #20
 8001446:	4293      	cmp	r3, r2
 8001448:	d01d      	beq.n	8001486 <HAL_DMA_Abort_IT+0x72>
 800144a:	3214      	adds	r2, #20
 800144c:	4293      	cmp	r3, r2
 800144e:	d01d      	beq.n	800148c <HAL_DMA_Abort_IT+0x78>
 8001450:	3214      	adds	r2, #20
 8001452:	4293      	cmp	r3, r2
 8001454:	d01d      	beq.n	8001492 <HAL_DMA_Abort_IT+0x7e>
 8001456:	3214      	adds	r2, #20
 8001458:	4293      	cmp	r3, r2
 800145a:	bf0c      	ite	eq
 800145c:	f44f 1380 	moveq.w	r3, #1048576	; 0x100000
 8001460:	f04f 7380 	movne.w	r3, #16777216	; 0x1000000
 8001464:	4a0e      	ldr	r2, [pc, #56]	; (80014a0 <HAL_DMA_Abort_IT+0x8c>)
 8001466:	2400      	movs	r4, #0
 8001468:	6053      	str	r3, [r2, #4]
 800146a:	2301      	movs	r3, #1
 800146c:	f880 3021 	strb.w	r3, [r0, #33]	; 0x21
 8001470:	6b43      	ldr	r3, [r0, #52]	; 0x34
 8001472:	f880 4020 	strb.w	r4, [r0, #32]
 8001476:	b17b      	cbz	r3, 8001498 <HAL_DMA_Abort_IT+0x84>
 8001478:	4798      	blx	r3
 800147a:	4620      	mov	r0, r4
 800147c:	e7d2      	b.n	8001424 <HAL_DMA_Abort_IT+0x10>
 800147e:	2301      	movs	r3, #1
 8001480:	e7f0      	b.n	8001464 <HAL_DMA_Abort_IT+0x50>
 8001482:	2310      	movs	r3, #16
 8001484:	e7ee      	b.n	8001464 <HAL_DMA_Abort_IT+0x50>
 8001486:	f44f 7380 	mov.w	r3, #256	; 0x100
 800148a:	e7eb      	b.n	8001464 <HAL_DMA_Abort_IT+0x50>
 800148c:	f44f 5380 	mov.w	r3, #4096	; 0x1000
 8001490:	e7e8      	b.n	8001464 <HAL_DMA_Abort_IT+0x50>
 8001492:	f44f 3380 	mov.w	r3, #65536	; 0x10000
 8001496:	e7e5      	b.n	8001464 <HAL_DMA_Abort_IT+0x50>
 8001498:	4618      	mov	r0, r3
 800149a:	e7c3      	b.n	8001424 <HAL_DMA_Abort_IT+0x10>
 800149c:	40020008 	.word	0x40020008
 80014a0:	40020000 	.word	0x40020000

080014a4 <HAL_DMA_IRQHandler>:
 80014a4:	b470      	push	{r4, r5, r6}
 80014a6:	2504      	movs	r5, #4
 80014a8:	6bc6      	ldr	r6, [r0, #60]	; 0x3c
 80014aa:	6c02      	ldr	r2, [r0, #64]	; 0x40
 80014ac:	6834      	ldr	r4, [r6, #0]
 80014ae:	6803      	ldr	r3, [r0, #0]
 80014b0:	4095      	lsls	r5, r2
 80014b2:	4225      	tst	r5, r4
 80014b4:	6819      	ldr	r1, [r3, #0]
 80014b6:	d032      	beq.n	800151e <HAL_DMA_IRQHandler+0x7a>
 80014b8:	074d      	lsls	r5, r1, #29
 80014ba:	d530      	bpl.n	800151e <HAL_DMA_IRQHandler+0x7a>
 80014bc:	681a      	ldr	r2, [r3, #0]
 80014be:	0696      	lsls	r6, r2, #26
 80014c0:	bf5e      	ittt	pl
 80014c2:	681a      	ldrpl	r2, [r3, #0]
 80014c4:	f022 0204 	bicpl.w	r2, r2, #4
 80014c8:	601a      	strpl	r2, [r3, #0]
 80014ca:	4a3e      	ldr	r2, [pc, #248]	; (80015c4 <HAL_DMA_IRQHandler+0x120>)
 80014cc:	4293      	cmp	r3, r2
 80014ce:	d019      	beq.n	8001504 <HAL_DMA_IRQHandler+0x60>
 80014d0:	3214      	adds	r2, #20
 80014d2:	4293      	cmp	r3, r2
 80014d4:	d018      	beq.n	8001508 <HAL_DMA_IRQHandler+0x64>
 80014d6:	3214      	adds	r2, #20
 80014d8:	4293      	cmp	r3, r2
 80014da:	d017      	beq.n	800150c <HAL_DMA_IRQHandler+0x68>
 80014dc:	3214      	adds	r2, #20
 80014de:	4293      	cmp	r3, r2
 80014e0:	d017      	beq.n	8001512 <HAL_DMA_IRQHandler+0x6e>
 80014e2:	3214      	adds	r2, #20
 80014e4:	4293      	cmp	r3, r2
 80014e6:	d017      	beq.n	8001518 <HAL_DMA_IRQHandler+0x74>
 80014e8:	3214      	adds	r2, #20
 80014ea:	4293      	cmp	r3, r2
 80014ec:	bf0c      	ite	eq
 80014ee:	f44f 0380 	moveq.w	r3, #4194304	; 0x400000
 80014f2:	f04f 6380 	movne.w	r3, #67108864	; 0x4000000
 80014f6:	4a34      	ldr	r2, [pc, #208]	; (80015c8 <HAL_DMA_IRQHandler+0x124>)
 80014f8:	6053      	str	r3, [r2, #4]
 80014fa:	6ac3      	ldr	r3, [r0, #44]	; 0x2c
 80014fc:	2b00      	cmp	r3, #0
 80014fe:	d05e      	beq.n	80015be <HAL_DMA_IRQHandler+0x11a>
 8001500:	bc70      	pop	{r4, r5, r6}
 8001502:	4718      	bx	r3
 8001504:	2304      	movs	r3, #4
 8001506:	e7f6      	b.n	80014f6 <HAL_DMA_IRQHandler+0x52>
 8001508:	2340      	movs	r3, #64	; 0x40
 800150a:	e7f4      	b.n	80014f6 <HAL_DMA_IRQHandler+0x52>
 800150c:	f44f 6380 	mov.w	r3, #1024	; 0x400
 8001510:	e7f1      	b.n	80014f6 <HAL_DMA_IRQHandler+0x52>
 8001512:	f44f 4380 	mov.w	r3, #16384	; 0x4000
 8001516:	e7ee      	b.n	80014f6 <HAL_DMA_IRQHandler+0x52>
 8001518:	f44f 2380 	mov.w	r3, #262144	; 0x40000
 800151c:	e7eb      	b.n	80014f6 <HAL_DMA_IRQHandler+0x52>
 800151e:	2502      	movs	r5, #2
 8001520:	4095      	lsls	r5, r2
 8001522:	4225      	tst	r5, r4
 8001524:	d035      	beq.n	8001592 <HAL_DMA_IRQHandler+0xee>
 8001526:	078d      	lsls	r5, r1, #30
 8001528:	d533      	bpl.n	8001592 <HAL_DMA_IRQHandler+0xee>
 800152a:	681a      	ldr	r2, [r3, #0]
 800152c:	0694      	lsls	r4, r2, #26
 800152e:	d406      	bmi.n	800153e <HAL_DMA_IRQHandler+0x9a>
 8001530:	681a      	ldr	r2, [r3, #0]
 8001532:	f022 020a 	bic.w	r2, r2, #10
 8001536:	601a      	str	r2, [r3, #0]
 8001538:	2201      	movs	r2, #1
 800153a:	f880 2021 	strb.w	r2, [r0, #33]	; 0x21
 800153e:	4a21      	ldr	r2, [pc, #132]	; (80015c4 <HAL_DMA_IRQHandler+0x120>)
 8001540:	4293      	cmp	r3, r2
 8001542:	d019      	beq.n	8001578 <HAL_DMA_IRQHandler+0xd4>
 8001544:	3214      	adds	r2, #20
 8001546:	4293      	cmp	r3, r2
 8001548:	d018      	beq.n	800157c <HAL_DMA_IRQHandler+0xd8>
 800154a:	3214      	adds	r2, #20
 800154c:	4293      	cmp	r3, r2
 800154e:	d017      	beq.n	8001580 <HAL_DMA_IRQHandler+0xdc>
 8001550:	3214      	adds	r2, #20
 8001552:	4293      	cmp	r3, r2
 8001554:	d017      	beq.n	8001586 <HAL_DMA_IRQHandler+0xe2>
 8001556:	3214      	adds	r2, #20
 8001558:	4293      	cmp	r3, r2
 800155a:	d017      	beq.n	800158c <HAL_DMA_IRQHandler+0xe8>
 800155c:	3214      	adds	r2, #20
 800155e:	4293      	cmp	r3, r2
 8001560:	bf0c      	ite	eq
 8001562:	f44f 1300 	moveq.w	r3, #2097152	; 0x200000
 8001566:	f04f 7300 	movne.w	r3, #33554432	; 0x2000000
 800156a:	4a17      	ldr	r2, [pc, #92]	; (80015c8 <HAL_DMA_IRQHandler+0x124>)
 800156c:	6053      	str	r3, [r2, #4]
 800156e:	2300      	movs	r3, #0
 8001570:	f880 3020 	strb.w	r3, [r0, #32]
 8001574:	6a83      	ldr	r3, [r0, #40]	; 0x28
 8001576:	e7c1      	b.n	80014fc <HAL_DMA_IRQHandler+0x58>
 8001578:	2302      	movs	r3, #2
 800157a:	e7f6      	b.n	800156a <HAL_DMA_IRQHandler+0xc6>
 800157c:	2320      	movs	r3, #32
 800157e:	e7f4      	b.n	800156a <HAL_DMA_IRQHandler+0xc6>
 8001580:	f44f 7300 	mov.w	r3, #512	; 0x200
 8001584:	e7f1      	b.n	800156a <HAL_DMA_IRQHandler+0xc6>
 8001586:	f44f 5300 	mov.w	r3, #8192	; 0x2000
 800158a:	e7ee      	b.n	800156a <HAL_DMA_IRQHandler+0xc6>
 800158c:	f44f 3300 	mov.w	r3, #131072	; 0x20000
 8001590:	e7eb      	b.n	800156a <HAL_DMA_IRQHandler+0xc6>
 8001592:	2508      	movs	r5, #8
 8001594:	4095      	lsls	r5, r2
 8001596:	4225      	tst	r5, r4
 8001598:	d011      	beq.n	80015be <HAL_DMA_IRQHandler+0x11a>
 800159a:	0709      	lsls	r1, r1, #28
 800159c:	d50f      	bpl.n	80015be <HAL_DMA_IRQHandler+0x11a>
 800159e:	6819      	ldr	r1, [r3, #0]
 80015a0:	f021 010e 	bic.w	r1, r1, #14
 80015a4:	6019      	str	r1, [r3, #0]
 80015a6:	2301      	movs	r3, #1
 80015a8:	fa03 f202 	lsl.w	r2, r3, r2
 80015ac:	6072      	str	r2, [r6, #4]
 80015ae:	6383      	str	r3, [r0, #56]	; 0x38
 80015b0:	f880 3021 	strb.w	r3, [r0, #33]	; 0x21
 80015b4:	2300      	movs	r3, #0
 80015b6:	f880 3020 	strb.w	r3, [r0, #32]
 80015ba:	6b03      	ldr	r3, [r0, #48]	; 0x30
 80015bc:	e79e      	b.n	80014fc <HAL_DMA_IRQHandler+0x58>
 80015be:	bc70      	pop	{r4, r5, r6}
 80015c0:	4770      	bx	lr
 80015c2:	bf00      	nop
 80015c4:	40020008 	.word	0x40020008
 80015c8:	40020000 	.word	0x40020000

080015cc <HAL_GPIO_Init>:
 80015cc:	e92d 4ff7 	stmdb	sp!, {r0, r1, r2, r4, r5, r6, r7, r8, r9, sl, fp, lr}
 80015d0:	2200      	movs	r2, #0
 80015d2:	4616      	mov	r6, r2
 80015d4:	4f61      	ldr	r7, [pc, #388]	; (800175c <HAL_GPIO_Init+0x190>)
 80015d6:	4b62      	ldr	r3, [pc, #392]	; (8001760 <HAL_GPIO_Init+0x194>)
 80015d8:	f8df c188 	ldr.w	ip, [pc, #392]	; 8001764 <HAL_GPIO_Init+0x198>
 80015dc:	f8df e188 	ldr.w	lr, [pc, #392]	; 8001768 <HAL_GPIO_Init+0x19c>
 80015e0:	680d      	ldr	r5, [r1, #0]
 80015e2:	fa35 f406 	lsrs.w	r4, r5, r6
 80015e6:	d102      	bne.n	80015ee <HAL_GPIO_Init+0x22>
 80015e8:	b003      	add	sp, #12
 80015ea:	e8bd 8ff0 	ldmia.w	sp!, {r4, r5, r6, r7, r8, r9, sl, fp, pc}
 80015ee:	f04f 0801 	mov.w	r8, #1
 80015f2:	fa08 f806 	lsl.w	r8, r8, r6
 80015f6:	ea05 0408 	and.w	r4, r5, r8
 80015fa:	ea38 0505 	bics.w	r5, r8, r5
 80015fe:	d177      	bne.n	80016f0 <HAL_GPIO_Init+0x124>
 8001600:	684d      	ldr	r5, [r1, #4]
 8001602:	2d03      	cmp	r5, #3
 8001604:	d807      	bhi.n	8001616 <HAL_GPIO_Init+0x4a>
 8001606:	3d01      	subs	r5, #1
 8001608:	2d02      	cmp	r5, #2
 800160a:	f200 8082 	bhi.w	8001712 <HAL_GPIO_Init+0x146>
 800160e:	e8df f005 	tbb	[pc, r5]
 8001612:	9792      	.short	0x9792
 8001614:	9d          	.byte	0x9d
 8001615:	00          	.byte	0x00
 8001616:	2d12      	cmp	r5, #18
 8001618:	f000 8095 	beq.w	8001746 <HAL_GPIO_Init+0x17a>
 800161c:	d86a      	bhi.n	80016f4 <HAL_GPIO_Init+0x128>
 800161e:	2d11      	cmp	r5, #17
 8001620:	f000 808b 	beq.w	800173a <HAL_GPIO_Init+0x16e>
 8001624:	2cff      	cmp	r4, #255	; 0xff
 8001626:	bf98      	it	ls
 8001628:	4682      	movls	sl, r0
 800162a:	f04f 090f 	mov.w	r9, #15
 800162e:	bf88      	it	hi
 8001630:	f100 0a04 	addhi.w	sl, r0, #4
 8001634:	ea4f 0586 	mov.w	r5, r6, lsl #2
 8001638:	f8da 8000 	ldr.w	r8, [sl]
 800163c:	bf88      	it	hi
 800163e:	3d20      	subhi	r5, #32
 8001640:	fa09 fb05 	lsl.w	fp, r9, r5
 8001644:	ea28 080b 	bic.w	r8, r8, fp
 8001648:	fa02 f505 	lsl.w	r5, r2, r5
 800164c:	ea48 0505 	orr.w	r5, r8, r5
 8001650:	f8ca 5000 	str.w	r5, [sl]
 8001654:	f8d1 a004 	ldr.w	sl, [r1, #4]
 8001658:	f01a 5f80 	tst.w	sl, #268435456	; 0x10000000
 800165c:	d048      	beq.n	80016f0 <HAL_GPIO_Init+0x124>
 800165e:	69bd      	ldr	r5, [r7, #24]
 8001660:	f026 0803 	bic.w	r8, r6, #3
 8001664:	f045 0501 	orr.w	r5, r5, #1
 8001668:	61bd      	str	r5, [r7, #24]
 800166a:	69bd      	ldr	r5, [r7, #24]
 800166c:	f108 4880 	add.w	r8, r8, #1073741824	; 0x40000000
 8001670:	f005 0501 	and.w	r5, r5, #1
 8001674:	9501      	str	r5, [sp, #4]
 8001676:	f508 3880 	add.w	r8, r8, #65536	; 0x10000
 800167a:	f006 0b03 	and.w	fp, r6, #3
 800167e:	9d01      	ldr	r5, [sp, #4]
 8001680:	ea4f 0b8b 	mov.w	fp, fp, lsl #2
 8001684:	f8d8 5008 	ldr.w	r5, [r8, #8]
 8001688:	fa09 f90b 	lsl.w	r9, r9, fp
 800168c:	ea25 0909 	bic.w	r9, r5, r9
 8001690:	4d36      	ldr	r5, [pc, #216]	; (800176c <HAL_GPIO_Init+0x1a0>)
 8001692:	42a8      	cmp	r0, r5
 8001694:	d05e      	beq.n	8001754 <HAL_GPIO_Init+0x188>
 8001696:	f505 6580 	add.w	r5, r5, #1024	; 0x400
 800169a:	42a8      	cmp	r0, r5
 800169c:	d05c      	beq.n	8001758 <HAL_GPIO_Init+0x18c>
 800169e:	f505 6580 	add.w	r5, r5, #1024	; 0x400
 80016a2:	42a8      	cmp	r0, r5
 80016a4:	bf0c      	ite	eq
 80016a6:	2502      	moveq	r5, #2
 80016a8:	2503      	movne	r5, #3
 80016aa:	fa05 f50b 	lsl.w	r5, r5, fp
 80016ae:	ea45 0509 	orr.w	r5, r5, r9
 80016b2:	f8c8 5008 	str.w	r5, [r8, #8]
 80016b6:	689d      	ldr	r5, [r3, #8]
 80016b8:	f41a 1f80 	tst.w	sl, #1048576	; 0x100000
 80016bc:	bf14      	ite	ne
 80016be:	4325      	orrne	r5, r4
 80016c0:	43a5      	biceq	r5, r4
 80016c2:	609d      	str	r5, [r3, #8]
 80016c4:	68dd      	ldr	r5, [r3, #12]
 80016c6:	f41a 1f00 	tst.w	sl, #2097152	; 0x200000
 80016ca:	bf14      	ite	ne
 80016cc:	4325      	orrne	r5, r4
 80016ce:	43a5      	biceq	r5, r4
 80016d0:	60dd      	str	r5, [r3, #12]
 80016d2:	685d      	ldr	r5, [r3, #4]
 80016d4:	f41a 3f00 	tst.w	sl, #131072	; 0x20000
 80016d8:	bf14      	ite	ne
 80016da:	4325      	orrne	r5, r4
 80016dc:	43a5      	biceq	r5, r4
 80016de:	605d      	str	r5, [r3, #4]
 80016e0:	681d      	ldr	r5, [r3, #0]
 80016e2:	f41a 3f80 	tst.w	sl, #65536	; 0x10000
 80016e6:	bf14      	ite	ne
 80016e8:	432c      	orrne	r4, r5
 80016ea:	ea25 0404 	biceq.w	r4, r5, r4
 80016ee:	601c      	str	r4, [r3, #0]
 80016f0:	3601      	adds	r6, #1
 80016f2:	e775      	b.n	80015e0 <HAL_GPIO_Init+0x14>
 80016f4:	f8df 9078 	ldr.w	r9, [pc, #120]	; 8001770 <HAL_GPIO_Init+0x1a4>
 80016f8:	454d      	cmp	r5, r9
 80016fa:	d00a      	beq.n	8001712 <HAL_GPIO_Init+0x146>
 80016fc:	d815      	bhi.n	800172a <HAL_GPIO_Init+0x15e>
 80016fe:	4575      	cmp	r5, lr
 8001700:	d007      	beq.n	8001712 <HAL_GPIO_Init+0x146>
 8001702:	f5a9 3980 	sub.w	r9, r9, #65536	; 0x10000
 8001706:	454d      	cmp	r5, r9
 8001708:	d003      	beq.n	8001712 <HAL_GPIO_Init+0x146>
 800170a:	f5a9 1980 	sub.w	r9, r9, #1048576	; 0x100000
 800170e:	454d      	cmp	r5, r9
 8001710:	d188      	bne.n	8001624 <HAL_GPIO_Init+0x58>
 8001712:	688a      	ldr	r2, [r1, #8]
 8001714:	b1e2      	cbz	r2, 8001750 <HAL_GPIO_Init+0x184>
 8001716:	2a01      	cmp	r2, #1
 8001718:	bf08      	it	eq
 800171a:	f8c0 8010 	streq.w	r8, [r0, #16]
 800171e:	f04f 0208 	mov.w	r2, #8
 8001722:	bf18      	it	ne
 8001724:	f8c0 8014 	strne.w	r8, [r0, #20]
 8001728:	e77c      	b.n	8001624 <HAL_GPIO_Init+0x58>
 800172a:	f8df 9048 	ldr.w	r9, [pc, #72]	; 8001774 <HAL_GPIO_Init+0x1a8>
 800172e:	454d      	cmp	r5, r9
 8001730:	d0ef      	beq.n	8001712 <HAL_GPIO_Init+0x146>
 8001732:	4565      	cmp	r5, ip
 8001734:	e7ec      	b.n	8001710 <HAL_GPIO_Init+0x144>
 8001736:	68ca      	ldr	r2, [r1, #12]
 8001738:	e774      	b.n	8001624 <HAL_GPIO_Init+0x58>
 800173a:	68ca      	ldr	r2, [r1, #12]
 800173c:	3204      	adds	r2, #4
 800173e:	e771      	b.n	8001624 <HAL_GPIO_Init+0x58>
 8001740:	68ca      	ldr	r2, [r1, #12]
 8001742:	3208      	adds	r2, #8
 8001744:	e76e      	b.n	8001624 <HAL_GPIO_Init+0x58>
 8001746:	68ca      	ldr	r2, [r1, #12]
 8001748:	320c      	adds	r2, #12
 800174a:	e76b      	b.n	8001624 <HAL_GPIO_Init+0x58>
 800174c:	2200      	movs	r2, #0
 800174e:	e769      	b.n	8001624 <HAL_GPIO_Init+0x58>
 8001750:	2204      	movs	r2, #4
 8001752:	e767      	b.n	8001624 <HAL_GPIO_Init+0x58>
 8001754:	2500      	movs	r5, #0
 8001756:	e7a8      	b.n	80016aa <HAL_GPIO_Init+0xde>
 8001758:	2501      	movs	r5, #1
 800175a:	e7a6      	b.n	80016aa <HAL_GPIO_Init+0xde>
 800175c:	40021000 	.word	0x40021000
 8001760:	40010400 	.word	0x40010400
 8001764:	10320000 	.word	0x10320000
 8001768:	10120000 	.word	0x10120000
 800176c:	40010800 	.word	0x40010800
 8001770:	10220000 	.word	0x10220000
 8001774:	10310000 	.word	0x10310000

08001778 <HAL_PCD_Init>:
 8001778:	b5f0      	push	{r4, r5, r6, r7, lr}
 800177a:	4604      	mov	r4, r0
 800177c:	b087      	sub	sp, #28
 800177e:	b310      	cbz	r0, 80017c6 <HAL_PCD_Init+0x4e>
 8001780:	f890 32a9 	ldrb.w	r3, [r0, #681]	; 0x2a9
 8001784:	f003 02ff 	and.w	r2, r3, #255	; 0xff
 8001788:	b91b      	cbnz	r3, 8001792 <HAL_PCD_Init+0x1a>
 800178a:	f880 22a8 	strb.w	r2, [r0, #680]	; 0x2a8
 800178e:	f003 f821 	bl	80047d4 <HAL_PCD_MspInit>
 8001792:	2303      	movs	r3, #3
 8001794:	4625      	mov	r5, r4
 8001796:	466e      	mov	r6, sp
 8001798:	f884 32a9 	strb.w	r3, [r4, #681]	; 0x2a9
 800179c:	f855 0b10 	ldr.w	r0, [r5], #16
 80017a0:	f001 fd88 	bl	80032b4 <USB_DisableGlobalInt>
 80017a4:	cd0f      	ldmia	r5!, {r0, r1, r2, r3}
 80017a6:	c60f      	stmia	r6!, {r0, r1, r2, r3}
 80017a8:	682b      	ldr	r3, [r5, #0]
 80017aa:	1d27      	adds	r7, r4, #4
 80017ac:	6033      	str	r3, [r6, #0]
 80017ae:	4626      	mov	r6, r4
 80017b0:	e897 000e 	ldmia.w	r7, {r1, r2, r3}
 80017b4:	f856 0b10 	ldr.w	r0, [r6], #16
 80017b8:	f001 fd6c 	bl	8003294 <USB_CoreInit>
 80017bc:	4605      	mov	r5, r0
 80017be:	b120      	cbz	r0, 80017ca <HAL_PCD_Init+0x52>
 80017c0:	2302      	movs	r3, #2
 80017c2:	f884 32a9 	strb.w	r3, [r4, #681]	; 0x2a9
 80017c6:	2501      	movs	r5, #1
 80017c8:	e04b      	b.n	8001862 <HAL_PCD_Init+0xea>
 80017ca:	4601      	mov	r1, r0
 80017cc:	6820      	ldr	r0, [r4, #0]
 80017ce:	f001 fd7b 	bl	80032c8 <USB_SetCurrentMode>
 80017d2:	4629      	mov	r1, r5
 80017d4:	f04f 0e01 	mov.w	lr, #1
 80017d8:	2528      	movs	r5, #40	; 0x28
 80017da:	460a      	mov	r2, r1
 80017dc:	f8d4 c004 	ldr.w	ip, [r4, #4]
 80017e0:	b2c8      	uxtb	r0, r1
 80017e2:	4584      	cmp	ip, r0
 80017e4:	f101 0101 	add.w	r1, r1, #1
 80017e8:	d81b      	bhi.n	8001822 <HAL_PCD_Init+0xaa>
 80017ea:	2300      	movs	r3, #0
 80017ec:	2528      	movs	r5, #40	; 0x28
 80017ee:	4619      	mov	r1, r3
 80017f0:	b2d8      	uxtb	r0, r3
 80017f2:	4584      	cmp	ip, r0
 80017f4:	f103 0301 	add.w	r3, r3, #1
 80017f8:	d81f      	bhi.n	800183a <HAL_PCD_Init+0xc2>
 80017fa:	46ec      	mov	ip, sp
 80017fc:	4635      	mov	r5, r6
 80017fe:	cd0f      	ldmia	r5!, {r0, r1, r2, r3}
 8001800:	e8ac 000f 	stmia.w	ip!, {r0, r1, r2, r3}
 8001804:	682b      	ldr	r3, [r5, #0]
 8001806:	f8cc 3000 	str.w	r3, [ip]
 800180a:	e897 000e 	ldmia.w	r7, {r1, r2, r3}
 800180e:	6820      	ldr	r0, [r4, #0]
 8001810:	f001 fd5c 	bl	80032cc <USB_DevInit>
 8001814:	2301      	movs	r3, #1
 8001816:	4605      	mov	r5, r0
 8001818:	b1e0      	cbz	r0, 8001854 <HAL_PCD_Init+0xdc>
 800181a:	2202      	movs	r2, #2
 800181c:	f884 22a9 	strb.w	r2, [r4, #681]	; 0x2a9
 8001820:	e7d1      	b.n	80017c6 <HAL_PCD_Init+0x4e>
 8001822:	fb05 4300 	mla	r3, r5, r0, r4
 8001826:	e9c3 220e 	strd	r2, r2, [r3, #56]	; 0x38
 800182a:	f883 e029 	strb.w	lr, [r3, #41]	; 0x29
 800182e:	f883 0028 	strb.w	r0, [r3, #40]	; 0x28
 8001832:	f883 202b 	strb.w	r2, [r3, #43]	; 0x2b
 8001836:	641a      	str	r2, [r3, #64]	; 0x40
 8001838:	e7d2      	b.n	80017e0 <HAL_PCD_Init+0x68>
 800183a:	fb05 4200 	mla	r2, r5, r0, r4
 800183e:	e9c2 115e 	strd	r1, r1, [r2, #376]	; 0x178
 8001842:	f882 1169 	strb.w	r1, [r2, #361]	; 0x169
 8001846:	f882 0168 	strb.w	r0, [r2, #360]	; 0x168
 800184a:	f882 116b 	strb.w	r1, [r2, #363]	; 0x16b
 800184e:	f8c2 1180 	str.w	r1, [r2, #384]	; 0x180
 8001852:	e7cd      	b.n	80017f0 <HAL_PCD_Init+0x78>
 8001854:	f884 0024 	strb.w	r0, [r4, #36]	; 0x24
 8001858:	6820      	ldr	r0, [r4, #0]
 800185a:	f884 32a9 	strb.w	r3, [r4, #681]	; 0x2a9
 800185e:	f001 ffed 	bl	800383c <USB_DevDisconnect>
 8001862:	4628      	mov	r0, r5
 8001864:	b007      	add	sp, #28
 8001866:	bdf0      	pop	{r4, r5, r6, r7, pc}

08001868 <HAL_PCD_Start>:
 8001868:	b538      	push	{r3, r4, r5, lr}
 800186a:	f890 32a8 	ldrb.w	r3, [r0, #680]	; 0x2a8
 800186e:	4604      	mov	r4, r0
 8001870:	2b01      	cmp	r3, #1
 8001872:	d010      	beq.n	8001896 <HAL_PCD_Start+0x2e>
 8001874:	2501      	movs	r5, #1
 8001876:	f880 52a8 	strb.w	r5, [r0, #680]	; 0x2a8
 800187a:	6800      	ldr	r0, [r0, #0]
 800187c:	f001 fd11 	bl	80032a2 <USB_EnableGlobalInt>
 8001880:	4629      	mov	r1, r5
 8001882:	4620      	mov	r0, r4
 8001884:	f003 f8a3 	bl	80049ce <HAL_PCDEx_SetConnectionState>
 8001888:	6820      	ldr	r0, [r4, #0]
 800188a:	f001 ffd5 	bl	8003838 <USB_DevConnect>
 800188e:	2000      	movs	r0, #0
 8001890:	f884 02a8 	strb.w	r0, [r4, #680]	; 0x2a8
 8001894:	bd38      	pop	{r3, r4, r5, pc}
 8001896:	2002      	movs	r0, #2
 8001898:	e7fc      	b.n	8001894 <HAL_PCD_Start+0x2c>

0800189a <HAL_PCD_SetAddress>:
 800189a:	b510      	push	{r4, lr}
 800189c:	f890 22a8 	ldrb.w	r2, [r0, #680]	; 0x2a8
 80018a0:	4604      	mov	r4, r0
 80018a2:	2a01      	cmp	r2, #1
 80018a4:	d00b      	beq.n	80018be <HAL_PCD_SetAddress+0x24>
 80018a6:	2201      	movs	r2, #1
 80018a8:	f880 1024 	strb.w	r1, [r0, #36]	; 0x24
 80018ac:	f880 22a8 	strb.w	r2, [r0, #680]	; 0x2a8
 80018b0:	6800      	ldr	r0, [r0, #0]
 80018b2:	f001 ffbb 	bl	800382c <USB_SetDevAddress>
 80018b6:	2000      	movs	r0, #0
 80018b8:	f884 02a8 	strb.w	r0, [r4, #680]	; 0x2a8
 80018bc:	bd10      	pop	{r4, pc}
 80018be:	2002      	movs	r0, #2
 80018c0:	e7fc      	b.n	80018bc <HAL_PCD_SetAddress+0x22>
	...

080018c4 <HAL_PCD_IRQHandler>:
 80018c4:	e92d 4ff0 	stmdb	sp!, {r4, r5, r6, r7, r8, r9, sl, fp, lr}
 80018c8:	4604      	mov	r4, r0
 80018ca:	b085      	sub	sp, #20
 80018cc:	6800      	ldr	r0, [r0, #0]
 80018ce:	f001 ffb7 	bl	8003840 <USB_ReadInterrupts>
 80018d2:	f410 4500 	ands.w	r5, r0, #32768	; 0x8000
 80018d6:	f000 8428 	beq.w	800212a <HAL_PCD_IRQHandler+0x866>
 80018da:	f8df 9320 	ldr.w	r9, [pc, #800]	; 8001bfc <HAL_PCD_IRQHandler+0x338>
 80018de:	f8df 8320 	ldr.w	r8, [pc, #800]	; 8001c00 <HAL_PCD_IRQHandler+0x33c>
 80018e2:	6820      	ldr	r0, [r4, #0]
 80018e4:	f8b0 3044 	ldrh.w	r3, [r0, #68]	; 0x44
 80018e8:	041f      	lsls	r7, r3, #16
 80018ea:	d402      	bmi.n	80018f2 <HAL_PCD_IRQHandler+0x2e>
 80018ec:	b005      	add	sp, #20
 80018ee:	e8bd 8ff0 	ldmia.w	sp!, {r4, r5, r6, r7, r8, r9, sl, fp, pc}
 80018f2:	f8b0 6044 	ldrh.w	r6, [r0, #68]	; 0x44
 80018f6:	b2b1      	uxth	r1, r6
 80018f8:	f016 060f 	ands.w	r6, r6, #15
 80018fc:	f040 80c6 	bne.w	8001a8c <HAL_PCD_IRQHandler+0x1c8>
 8001900:	f011 0110 	ands.w	r1, r1, #16
 8001904:	d12b      	bne.n	800195e <HAL_PCD_IRQHandler+0x9a>
 8001906:	8803      	ldrh	r3, [r0, #0]
 8001908:	b29b      	uxth	r3, r3
 800190a:	ea03 0309 	and.w	r3, r3, r9
 800190e:	f443 4300 	orr.w	r3, r3, #32768	; 0x8000
 8001912:	8003      	strh	r3, [r0, #0]
 8001914:	f8b0 3050 	ldrh.w	r3, [r0, #80]	; 0x50
 8001918:	f894 2028 	ldrb.w	r2, [r4, #40]	; 0x28
 800191c:	b29b      	uxth	r3, r3
 800191e:	eb03 03c2 	add.w	r3, r3, r2, lsl #3
 8001922:	eb00 0043 	add.w	r0, r0, r3, lsl #1
 8001926:	f8b0 3404 	ldrh.w	r3, [r0, #1028]	; 0x404
 800192a:	6be2      	ldr	r2, [r4, #60]	; 0x3c
 800192c:	f3c3 0309 	ubfx	r3, r3, #0, #10
 8001930:	6463      	str	r3, [r4, #68]	; 0x44
 8001932:	4413      	add	r3, r2
 8001934:	63e3      	str	r3, [r4, #60]	; 0x3c
 8001936:	4620      	mov	r0, r4
 8001938:	f002 ff7b 	bl	8004832 <HAL_PCD_DataInStageCallback>
 800193c:	f894 3024 	ldrb.w	r3, [r4, #36]	; 0x24
 8001940:	2b00      	cmp	r3, #0
 8001942:	d0ce      	beq.n	80018e2 <HAL_PCD_IRQHandler+0x1e>
 8001944:	6c22      	ldr	r2, [r4, #64]	; 0x40
 8001946:	2a00      	cmp	r2, #0
 8001948:	d1cb      	bne.n	80018e2 <HAL_PCD_IRQHandler+0x1e>
 800194a:	f894 3024 	ldrb.w	r3, [r4, #36]	; 0x24
 800194e:	6821      	ldr	r1, [r4, #0]
 8001950:	f043 0380 	orr.w	r3, r3, #128	; 0x80
 8001954:	f8a1 304c 	strh.w	r3, [r1, #76]	; 0x4c
 8001958:	f884 2024 	strb.w	r2, [r4, #36]	; 0x24
 800195c:	e7c1      	b.n	80018e2 <HAL_PCD_IRQHandler+0x1e>
 800195e:	8805      	ldrh	r5, [r0, #0]
 8001960:	b2ab      	uxth	r3, r5
 8001962:	f415 6500 	ands.w	r5, r5, #2048	; 0x800
 8001966:	d021      	beq.n	80019ac <HAL_PCD_IRQHandler+0xe8>
 8001968:	f8b0 3050 	ldrh.w	r3, [r0, #80]	; 0x50
 800196c:	f894 2168 	ldrb.w	r2, [r4, #360]	; 0x168
 8001970:	b29b      	uxth	r3, r3
 8001972:	eb03 03c2 	add.w	r3, r3, r2, lsl #3
 8001976:	eb00 0343 	add.w	r3, r0, r3, lsl #1
 800197a:	f8b3 340c 	ldrh.w	r3, [r3, #1036]	; 0x40c
 800197e:	f8b4 216e 	ldrh.w	r2, [r4, #366]	; 0x16e
 8001982:	f3c3 0309 	ubfx	r3, r3, #0, #10
 8001986:	f8c4 3184 	str.w	r3, [r4, #388]	; 0x184
 800198a:	f504 712c 	add.w	r1, r4, #688	; 0x2b0
 800198e:	f002 f9a5 	bl	8003cdc <USB_ReadPMA>
 8001992:	6822      	ldr	r2, [r4, #0]
 8001994:	4620      	mov	r0, r4
 8001996:	8813      	ldrh	r3, [r2, #0]
 8001998:	f023 0370 	bic.w	r3, r3, #112	; 0x70
 800199c:	051b      	lsls	r3, r3, #20
 800199e:	0d1b      	lsrs	r3, r3, #20
 80019a0:	f043 0380 	orr.w	r3, r3, #128	; 0x80
 80019a4:	8013      	strh	r3, [r2, #0]
 80019a6:	f002 ff35 	bl	8004814 <HAL_PCD_SetupStageCallback>
 80019aa:	e79a      	b.n	80018e2 <HAL_PCD_IRQHandler+0x1e>
 80019ac:	0419      	lsls	r1, r3, #16
 80019ae:	d598      	bpl.n	80018e2 <HAL_PCD_IRQHandler+0x1e>
 80019b0:	8803      	ldrh	r3, [r0, #0]
 80019b2:	f023 0370 	bic.w	r3, r3, #112	; 0x70
 80019b6:	051b      	lsls	r3, r3, #20
 80019b8:	0d1b      	lsrs	r3, r3, #20
 80019ba:	f043 0380 	orr.w	r3, r3, #128	; 0x80
 80019be:	8003      	strh	r3, [r0, #0]
 80019c0:	f8b0 3050 	ldrh.w	r3, [r0, #80]	; 0x50
 80019c4:	f894 2168 	ldrb.w	r2, [r4, #360]	; 0x168
 80019c8:	b29b      	uxth	r3, r3
 80019ca:	eb03 03c2 	add.w	r3, r3, r2, lsl #3
 80019ce:	eb00 0343 	add.w	r3, r0, r3, lsl #1
 80019d2:	f8b3 340c 	ldrh.w	r3, [r3, #1036]	; 0x40c
 80019d6:	f3c3 0309 	ubfx	r3, r3, #0, #10
 80019da:	f8c4 3184 	str.w	r3, [r4, #388]	; 0x184
 80019de:	b18b      	cbz	r3, 8001a04 <HAL_PCD_IRQHandler+0x140>
 80019e0:	f8d4 117c 	ldr.w	r1, [r4, #380]	; 0x17c
 80019e4:	b171      	cbz	r1, 8001a04 <HAL_PCD_IRQHandler+0x140>
 80019e6:	f8b4 216e 	ldrh.w	r2, [r4, #366]	; 0x16e
 80019ea:	f002 f977 	bl	8003cdc <USB_ReadPMA>
 80019ee:	f8d4 317c 	ldr.w	r3, [r4, #380]	; 0x17c
 80019f2:	f8d4 2184 	ldr.w	r2, [r4, #388]	; 0x184
 80019f6:	4629      	mov	r1, r5
 80019f8:	4413      	add	r3, r2
 80019fa:	4620      	mov	r0, r4
 80019fc:	f8c4 317c 	str.w	r3, [r4, #380]	; 0x17c
 8001a00:	f002 ff0e 	bl	8004820 <HAL_PCD_DataOutStageCallback>
 8001a04:	6821      	ldr	r1, [r4, #0]
 8001a06:	880a      	ldrh	r2, [r1, #0]
 8001a08:	b293      	uxth	r3, r2
 8001a0a:	0512      	lsls	r2, r2, #20
 8001a0c:	f53f af69 	bmi.w	80018e2 <HAL_PCD_IRQHandler+0x1e>
 8001a10:	f403 5340 	and.w	r3, r3, #12288	; 0x3000
 8001a14:	f5b3 5f40 	cmp.w	r3, #12288	; 0x3000
 8001a18:	f43f af63 	beq.w	80018e2 <HAL_PCD_IRQHandler+0x1e>
 8001a1c:	f8b1 3050 	ldrh.w	r3, [r1, #80]	; 0x50
 8001a20:	f201 400c 	addw	r0, r1, #1036	; 0x40c
 8001a24:	b29b      	uxth	r3, r3
 8001a26:	5ac2      	ldrh	r2, [r0, r3]
 8001a28:	f8d4 5178 	ldr.w	r5, [r4, #376]	; 0x178
 8001a2c:	f3c2 0209 	ubfx	r2, r2, #0, #10
 8001a30:	2d3e      	cmp	r5, #62	; 0x3e
 8001a32:	52c2      	strh	r2, [r0, r3]
 8001a34:	d90c      	bls.n	8001a50 <HAL_PCD_IRQHandler+0x18c>
 8001a36:	5ac2      	ldrh	r2, [r0, r3]
 8001a38:	096e      	lsrs	r6, r5, #5
 8001a3a:	06ef      	lsls	r7, r5, #27
 8001a3c:	bf08      	it	eq
 8001a3e:	f106 36ff 	addeq.w	r6, r6, #4294967295
 8001a42:	b292      	uxth	r2, r2
 8001a44:	ea42 2286 	orr.w	r2, r2, r6, lsl #10
 8001a48:	ea42 0208 	orr.w	r2, r2, r8
 8001a4c:	b292      	uxth	r2, r2
 8001a4e:	e004      	b.n	8001a5a <HAL_PCD_IRQHandler+0x196>
 8001a50:	b99d      	cbnz	r5, 8001a7a <HAL_PCD_IRQHandler+0x1b6>
 8001a52:	5ac2      	ldrh	r2, [r0, r3]
 8001a54:	b292      	uxth	r2, r2
 8001a56:	f442 4200 	orr.w	r2, r2, #32768	; 0x8000
 8001a5a:	52c2      	strh	r2, [r0, r3]
 8001a5c:	880b      	ldrh	r3, [r1, #0]
 8001a5e:	f423 4380 	bic.w	r3, r3, #16384	; 0x4000
 8001a62:	f023 0370 	bic.w	r3, r3, #112	; 0x70
 8001a66:	041b      	lsls	r3, r3, #16
 8001a68:	0c1b      	lsrs	r3, r3, #16
 8001a6a:	f483 5340 	eor.w	r3, r3, #12288	; 0x3000
 8001a6e:	f443 4300 	orr.w	r3, r3, #32768	; 0x8000
 8001a72:	f043 0380 	orr.w	r3, r3, #128	; 0x80
 8001a76:	800b      	strh	r3, [r1, #0]
 8001a78:	e733      	b.n	80018e2 <HAL_PCD_IRQHandler+0x1e>
 8001a7a:	5ac2      	ldrh	r2, [r0, r3]
 8001a7c:	086e      	lsrs	r6, r5, #1
 8001a7e:	07ed      	lsls	r5, r5, #31
 8001a80:	bf48      	it	mi
 8001a82:	3601      	addmi	r6, #1
 8001a84:	b292      	uxth	r2, r2
 8001a86:	ea42 2286 	orr.w	r2, r2, r6, lsl #10
 8001a8a:	e7df      	b.n	8001a4c <HAL_PCD_IRQHandler+0x188>
 8001a8c:	f830 3026 	ldrh.w	r3, [r0, r6, lsl #2]
 8001a90:	041a      	lsls	r2, r3, #16
 8001a92:	b29f      	uxth	r7, r3
 8001a94:	f140 80f4 	bpl.w	8001c80 <HAL_PCD_IRQHandler+0x3bc>
 8001a98:	2128      	movs	r1, #40	; 0x28
 8001a9a:	f830 3026 	ldrh.w	r3, [r0, r6, lsl #2]
 8001a9e:	fb01 4106 	mla	r1, r1, r6, r4
 8001aa2:	f023 0370 	bic.w	r3, r3, #112	; 0x70
 8001aa6:	051b      	lsls	r3, r3, #20
 8001aa8:	0d1b      	lsrs	r3, r3, #20
 8001aaa:	f043 0380 	orr.w	r3, r3, #128	; 0x80
 8001aae:	f820 3026 	strh.w	r3, [r0, r6, lsl #2]
 8001ab2:	f891 3174 	ldrb.w	r3, [r1, #372]	; 0x174
 8001ab6:	f500 6c80 	add.w	ip, r0, #1024	; 0x400
 8001aba:	b9b3      	cbnz	r3, 8001aea <HAL_PCD_IRQHandler+0x226>
 8001abc:	f8b0 3050 	ldrh.w	r3, [r0, #80]	; 0x50
 8001ac0:	f891 2168 	ldrb.w	r2, [r1, #360]	; 0x168
 8001ac4:	b29b      	uxth	r3, r3
 8001ac6:	3306      	adds	r3, #6
 8001ac8:	eb03 03c2 	add.w	r3, r3, r2, lsl #3
 8001acc:	f83c 5013 	ldrh.w	r5, [ip, r3, lsl #1]
 8001ad0:	f3c5 0509 	ubfx	r5, r5, #0, #10
 8001ad4:	2d00      	cmp	r5, #0
 8001ad6:	f000 80b7 	beq.w	8001c48 <HAL_PCD_IRQHandler+0x384>
 8001ada:	462b      	mov	r3, r5
 8001adc:	f8b1 216e 	ldrh.w	r2, [r1, #366]	; 0x16e
 8001ae0:	f8d1 117c 	ldr.w	r1, [r1, #380]	; 0x17c
 8001ae4:	f002 f8fa 	bl	8003cdc <USB_ReadPMA>
 8001ae8:	e0ae      	b.n	8001c48 <HAL_PCD_IRQHandler+0x384>
 8001aea:	f891 216b 	ldrb.w	r2, [r1, #363]	; 0x16b
 8001aee:	f891 3168 	ldrb.w	r3, [r1, #360]	; 0x168
 8001af2:	2a02      	cmp	r2, #2
 8001af4:	f040 8086 	bne.w	8001c04 <HAL_PCD_IRQHandler+0x340>
 8001af8:	f8b0 5050 	ldrh.w	r5, [r0, #80]	; 0x50
 8001afc:	f417 4a80 	ands.w	sl, r7, #16384	; 0x4000
 8001b00:	f8d1 2180 	ldr.w	r2, [r1, #384]	; 0x180
 8001b04:	ea4f 0bc3 	mov.w	fp, r3, lsl #3
 8001b08:	b2ad      	uxth	r5, r5
 8001b0a:	f007 0e40 	and.w	lr, r7, #64	; 0x40
 8001b0e:	d03b      	beq.n	8001b88 <HAL_PCD_IRQHandler+0x2c4>
 8001b10:	44ab      	add	fp, r5
 8001b12:	f10b 0b02 	add.w	fp, fp, #2
 8001b16:	f83c 501b 	ldrh.w	r5, [ip, fp, lsl #1]
 8001b1a:	f3c5 0509 	ubfx	r5, r5, #0, #10
 8001b1e:	4295      	cmp	r5, r2
 8001b20:	d913      	bls.n	8001b4a <HAL_PCD_IRQHandler+0x286>
 8001b22:	2200      	movs	r2, #0
 8001b24:	f8c1 2180 	str.w	r2, [r1, #384]	; 0x180
 8001b28:	f830 2023 	ldrh.w	r2, [r0, r3, lsl #2]
 8001b2c:	f422 4280 	bic.w	r2, r2, #16384	; 0x4000
 8001b30:	f022 0270 	bic.w	r2, r2, #112	; 0x70
 8001b34:	0412      	lsls	r2, r2, #16
 8001b36:	0c12      	lsrs	r2, r2, #16
 8001b38:	f482 5200 	eor.w	r2, r2, #8192	; 0x2000
 8001b3c:	f442 4200 	orr.w	r2, r2, #32768	; 0x8000
 8001b40:	f042 0280 	orr.w	r2, r2, #128	; 0x80
 8001b44:	f820 2023 	strh.w	r2, [r0, r3, lsl #2]
 8001b48:	e004      	b.n	8001b54 <HAL_PCD_IRQHandler+0x290>
 8001b4a:	1b52      	subs	r2, r2, r5
 8001b4c:	f8c1 2180 	str.w	r2, [r1, #384]	; 0x180
 8001b50:	2a00      	cmp	r2, #0
 8001b52:	d0e9      	beq.n	8001b28 <HAL_PCD_IRQHandler+0x264>
 8001b54:	f1be 0f00 	cmp.w	lr, #0
 8001b58:	d00d      	beq.n	8001b76 <HAL_PCD_IRQHandler+0x2b2>
 8001b5a:	f830 2023 	ldrh.w	r2, [r0, r3, lsl #2]
 8001b5e:	f422 42e0 	bic.w	r2, r2, #28672	; 0x7000
 8001b62:	f022 0270 	bic.w	r2, r2, #112	; 0x70
 8001b66:	0412      	lsls	r2, r2, #16
 8001b68:	0c12      	lsrs	r2, r2, #16
 8001b6a:	f442 4200 	orr.w	r2, r2, #32768	; 0x8000
 8001b6e:	f042 02c0 	orr.w	r2, r2, #192	; 0xc0
 8001b72:	f820 2023 	strh.w	r2, [r0, r3, lsl #2]
 8001b76:	2d00      	cmp	r5, #0
 8001b78:	d066      	beq.n	8001c48 <HAL_PCD_IRQHandler+0x384>
 8001b7a:	2128      	movs	r1, #40	; 0x28
 8001b7c:	fb01 4106 	mla	r1, r1, r6, r4
 8001b80:	462b      	mov	r3, r5
 8001b82:	f8b1 2170 	ldrh.w	r2, [r1, #368]	; 0x170
 8001b86:	e7ab      	b.n	8001ae0 <HAL_PCD_IRQHandler+0x21c>
 8001b88:	445d      	add	r5, fp
 8001b8a:	3506      	adds	r5, #6
 8001b8c:	f83c 5015 	ldrh.w	r5, [ip, r5, lsl #1]
 8001b90:	f3c5 0509 	ubfx	r5, r5, #0, #10
 8001b94:	4295      	cmp	r5, r2
 8001b96:	d912      	bls.n	8001bbe <HAL_PCD_IRQHandler+0x2fa>
 8001b98:	f8c1 a180 	str.w	sl, [r1, #384]	; 0x180
 8001b9c:	f830 2023 	ldrh.w	r2, [r0, r3, lsl #2]
 8001ba0:	f422 4280 	bic.w	r2, r2, #16384	; 0x4000
 8001ba4:	f022 0270 	bic.w	r2, r2, #112	; 0x70
 8001ba8:	0412      	lsls	r2, r2, #16
 8001baa:	0c12      	lsrs	r2, r2, #16
 8001bac:	f482 5200 	eor.w	r2, r2, #8192	; 0x2000
 8001bb0:	f442 4200 	orr.w	r2, r2, #32768	; 0x8000
 8001bb4:	f042 0280 	orr.w	r2, r2, #128	; 0x80
 8001bb8:	f820 2023 	strh.w	r2, [r0, r3, lsl #2]
 8001bbc:	e004      	b.n	8001bc8 <HAL_PCD_IRQHandler+0x304>
 8001bbe:	1b52      	subs	r2, r2, r5
 8001bc0:	f8c1 2180 	str.w	r2, [r1, #384]	; 0x180
 8001bc4:	2a00      	cmp	r2, #0
 8001bc6:	d0e9      	beq.n	8001b9c <HAL_PCD_IRQHandler+0x2d8>
 8001bc8:	f1be 0f00 	cmp.w	lr, #0
 8001bcc:	d10d      	bne.n	8001bea <HAL_PCD_IRQHandler+0x326>
 8001bce:	f830 2023 	ldrh.w	r2, [r0, r3, lsl #2]
 8001bd2:	f422 42e0 	bic.w	r2, r2, #28672	; 0x7000
 8001bd6:	f022 0270 	bic.w	r2, r2, #112	; 0x70
 8001bda:	0412      	lsls	r2, r2, #16
 8001bdc:	0c12      	lsrs	r2, r2, #16
 8001bde:	f442 4200 	orr.w	r2, r2, #32768	; 0x8000
 8001be2:	f042 02c0 	orr.w	r2, r2, #192	; 0xc0
 8001be6:	f820 2023 	strh.w	r2, [r0, r3, lsl #2]
 8001bea:	b36d      	cbz	r5, 8001c48 <HAL_PCD_IRQHandler+0x384>
 8001bec:	2128      	movs	r1, #40	; 0x28
 8001bee:	fb01 4106 	mla	r1, r1, r6, r4
 8001bf2:	462b      	mov	r3, r5
 8001bf4:	f8b1 2172 	ldrh.w	r2, [r1, #370]	; 0x172
 8001bf8:	e772      	b.n	8001ae0 <HAL_PCD_IRQHandler+0x21c>
 8001bfa:	bf00      	nop
 8001bfc:	ffff8f0f 	.word	0xffff8f0f
 8001c00:	ffff8000 	.word	0xffff8000
 8001c04:	f830 2023 	ldrh.w	r2, [r0, r3, lsl #2]
 8001c08:	f422 42e0 	bic.w	r2, r2, #28672	; 0x7000
 8001c0c:	f022 0270 	bic.w	r2, r2, #112	; 0x70
 8001c10:	0412      	lsls	r2, r2, #16
 8001c12:	0c12      	lsrs	r2, r2, #16
 8001c14:	f442 4200 	orr.w	r2, r2, #32768	; 0x8000
 8001c18:	f042 02c0 	orr.w	r2, r2, #192	; 0xc0
 8001c1c:	f820 2023 	strh.w	r2, [r0, r3, lsl #2]
 8001c20:	f891 3168 	ldrb.w	r3, [r1, #360]	; 0x168
 8001c24:	f830 2023 	ldrh.w	r2, [r0, r3, lsl #2]
 8001c28:	f412 4f80 	tst.w	r2, #16384	; 0x4000
 8001c2c:	ea4f 02c3 	mov.w	r2, r3, lsl #3
 8001c30:	f8b0 3050 	ldrh.w	r3, [r0, #80]	; 0x50
 8001c34:	b29b      	uxth	r3, r3
 8001c36:	d056      	beq.n	8001ce6 <HAL_PCD_IRQHandler+0x422>
 8001c38:	3302      	adds	r3, #2
 8001c3a:	4413      	add	r3, r2
 8001c3c:	f83c 5013 	ldrh.w	r5, [ip, r3, lsl #1]
 8001c40:	f3c5 0509 	ubfx	r5, r5, #0, #10
 8001c44:	2d00      	cmp	r5, #0
 8001c46:	d19b      	bne.n	8001b80 <HAL_PCD_IRQHandler+0x2bc>
 8001c48:	2128      	movs	r1, #40	; 0x28
 8001c4a:	4371      	muls	r1, r6
 8001c4c:	1863      	adds	r3, r4, r1
 8001c4e:	f8d3 2184 	ldr.w	r2, [r3, #388]	; 0x184
 8001c52:	442a      	add	r2, r5
 8001c54:	f8c3 2184 	str.w	r2, [r3, #388]	; 0x184
 8001c58:	f8d3 217c 	ldr.w	r2, [r3, #380]	; 0x17c
 8001c5c:	442a      	add	r2, r5
 8001c5e:	f8c3 217c 	str.w	r2, [r3, #380]	; 0x17c
 8001c62:	f8d3 2180 	ldr.w	r2, [r3, #384]	; 0x180
 8001c66:	b11a      	cbz	r2, 8001c70 <HAL_PCD_IRQHandler+0x3ac>
 8001c68:	f8d3 3178 	ldr.w	r3, [r3, #376]	; 0x178
 8001c6c:	429d      	cmp	r5, r3
 8001c6e:	d243      	bcs.n	8001cf8 <HAL_PCD_IRQHandler+0x434>
 8001c70:	2328      	movs	r3, #40	; 0x28
 8001c72:	fb03 4306 	mla	r3, r3, r6, r4
 8001c76:	4620      	mov	r0, r4
 8001c78:	f893 1168 	ldrb.w	r1, [r3, #360]	; 0x168
 8001c7c:	f002 fdd0 	bl	8004820 <HAL_PCD_DataOutStageCallback>
 8001c80:	063b      	lsls	r3, r7, #24
 8001c82:	f57f ae2e 	bpl.w	80018e2 <HAL_PCD_IRQHandler+0x1e>
 8001c86:	f04f 0c28 	mov.w	ip, #40	; 0x28
 8001c8a:	6820      	ldr	r0, [r4, #0]
 8001c8c:	fb0c 4506 	mla	r5, ip, r6, r4
 8001c90:	f830 3026 	ldrh.w	r3, [r0, r6, lsl #2]
 8001c94:	b29b      	uxth	r3, r3
 8001c96:	ea03 0309 	and.w	r3, r3, r9
 8001c9a:	f443 4300 	orr.w	r3, r3, #32768	; 0x8000
 8001c9e:	f820 3026 	strh.w	r3, [r0, r6, lsl #2]
 8001ca2:	f895 302b 	ldrb.w	r3, [r5, #43]	; 0x2b
 8001ca6:	2b01      	cmp	r3, #1
 8001ca8:	d150      	bne.n	8001d4c <HAL_PCD_IRQHandler+0x488>
 8001caa:	2100      	movs	r1, #0
 8001cac:	f895 3034 	ldrb.w	r3, [r5, #52]	; 0x34
 8001cb0:	6429      	str	r1, [r5, #64]	; 0x40
 8001cb2:	b393      	cbz	r3, 8001d1a <HAL_PCD_IRQHandler+0x456>
 8001cb4:	f017 0740 	ands.w	r7, r7, #64	; 0x40
 8001cb8:	f895 2029 	ldrb.w	r2, [r5, #41]	; 0x29
 8001cbc:	f895 3028 	ldrb.w	r3, [r5, #40]	; 0x28
 8001cc0:	d031      	beq.n	8001d26 <HAL_PCD_IRQHandler+0x462>
 8001cc2:	bb02      	cbnz	r2, 8001d06 <HAL_PCD_IRQHandler+0x442>
 8001cc4:	f8b0 2050 	ldrh.w	r2, [r0, #80]	; 0x50
 8001cc8:	011b      	lsls	r3, r3, #4
 8001cca:	b292      	uxth	r2, r2
 8001ccc:	f200 4004 	addw	r0, r0, #1028	; 0x404
 8001cd0:	4410      	add	r0, r2
 8001cd2:	5a1a      	ldrh	r2, [r3, r0]
 8001cd4:	f3c2 0209 	ubfx	r2, r2, #0, #10
 8001cd8:	521a      	strh	r2, [r3, r0]
 8001cda:	5a1a      	ldrh	r2, [r3, r0]
 8001cdc:	b292      	uxth	r2, r2
 8001cde:	f442 4200 	orr.w	r2, r2, #32768	; 0x8000
 8001ce2:	521a      	strh	r2, [r3, r0]
 8001ce4:	e019      	b.n	8001d1a <HAL_PCD_IRQHandler+0x456>
 8001ce6:	3306      	adds	r3, #6
 8001ce8:	4413      	add	r3, r2
 8001cea:	f83c 5013 	ldrh.w	r5, [ip, r3, lsl #1]
 8001cee:	f3c5 0509 	ubfx	r5, r5, #0, #10
 8001cf2:	2d00      	cmp	r5, #0
 8001cf4:	d0a8      	beq.n	8001c48 <HAL_PCD_IRQHandler+0x384>
 8001cf6:	e77c      	b.n	8001bf2 <HAL_PCD_IRQHandler+0x32e>
 8001cf8:	f501 71b4 	add.w	r1, r1, #360	; 0x168
 8001cfc:	6820      	ldr	r0, [r4, #0]
 8001cfe:	4421      	add	r1, r4
 8001d00:	f001 fdb4 	bl	800386c <USB_EPStartXfer>
 8001d04:	e7bc      	b.n	8001c80 <HAL_PCD_IRQHandler+0x3bc>
 8001d06:	2a01      	cmp	r2, #1
 8001d08:	d107      	bne.n	8001d1a <HAL_PCD_IRQHandler+0x456>
 8001d0a:	f8b0 2050 	ldrh.w	r2, [r0, #80]	; 0x50
 8001d0e:	f200 4004 	addw	r0, r0, #1028	; 0x404
 8001d12:	b292      	uxth	r2, r2
 8001d14:	011b      	lsls	r3, r3, #4
 8001d16:	4410      	add	r0, r2
 8001d18:	5219      	strh	r1, [r3, r0]
 8001d1a:	f895 1028 	ldrb.w	r1, [r5, #40]	; 0x28
 8001d1e:	4620      	mov	r0, r4
 8001d20:	f002 fd87 	bl	8004832 <HAL_PCD_DataInStageCallback>
 8001d24:	e5dd      	b.n	80018e2 <HAL_PCD_IRQHandler+0x1e>
 8001d26:	b932      	cbnz	r2, 8001d36 <HAL_PCD_IRQHandler+0x472>
 8001d28:	f8b0 2050 	ldrh.w	r2, [r0, #80]	; 0x50
 8001d2c:	011b      	lsls	r3, r3, #4
 8001d2e:	b292      	uxth	r2, r2
 8001d30:	f200 400c 	addw	r0, r0, #1036	; 0x40c
 8001d34:	e7cc      	b.n	8001cd0 <HAL_PCD_IRQHandler+0x40c>
 8001d36:	2a01      	cmp	r2, #1
 8001d38:	d1ef      	bne.n	8001d1a <HAL_PCD_IRQHandler+0x456>
 8001d3a:	f8b0 2050 	ldrh.w	r2, [r0, #80]	; 0x50
 8001d3e:	f200 400c 	addw	r0, r0, #1036	; 0x40c
 8001d42:	b292      	uxth	r2, r2
 8001d44:	011b      	lsls	r3, r3, #4
 8001d46:	4410      	add	r0, r2
 8001d48:	521f      	strh	r7, [r3, r0]
 8001d4a:	e7e6      	b.n	8001d1a <HAL_PCD_IRQHandler+0x456>
 8001d4c:	f895 1028 	ldrb.w	r1, [r5, #40]	; 0x28
 8001d50:	f417 7280 	ands.w	r2, r7, #256	; 0x100
 8001d54:	6c2b      	ldr	r3, [r5, #64]	; 0x40
 8001d56:	ea4f 0ac1 	mov.w	sl, r1, lsl #3
 8001d5a:	f500 6e80 	add.w	lr, r0, #1024	; 0x400
 8001d5e:	d11c      	bne.n	8001d9a <HAL_PCD_IRQHandler+0x4d6>
 8001d60:	f8b0 7050 	ldrh.w	r7, [r0, #80]	; 0x50
 8001d64:	b2bf      	uxth	r7, r7
 8001d66:	44ba      	add	sl, r7
 8001d68:	f10a 0a02 	add.w	sl, sl, #2
 8001d6c:	f83e 701a 	ldrh.w	r7, [lr, sl, lsl #1]
 8001d70:	f3c7 0709 	ubfx	r7, r7, #0, #10
 8001d74:	429f      	cmp	r7, r3
 8001d76:	d301      	bcc.n	8001d7c <HAL_PCD_IRQHandler+0x4b8>
 8001d78:	642a      	str	r2, [r5, #64]	; 0x40
 8001d7a:	e7d0      	b.n	8001d1e <HAL_PCD_IRQHandler+0x45a>
 8001d7c:	1bdb      	subs	r3, r3, r7
 8001d7e:	642b      	str	r3, [r5, #64]	; 0x40
 8001d80:	6beb      	ldr	r3, [r5, #60]	; 0x3c
 8001d82:	fb06 cc0c 	mla	ip, r6, ip, ip
 8001d86:	443b      	add	r3, r7
 8001d88:	63eb      	str	r3, [r5, #60]	; 0x3c
 8001d8a:	6c6b      	ldr	r3, [r5, #68]	; 0x44
 8001d8c:	eb04 010c 	add.w	r1, r4, ip
 8001d90:	443b      	add	r3, r7
 8001d92:	646b      	str	r3, [r5, #68]	; 0x44
 8001d94:	f001 fd6a 	bl	800386c <USB_EPStartXfer>
 8001d98:	e5a3      	b.n	80018e2 <HAL_PCD_IRQHandler+0x1e>
 8001d9a:	f8b0 2050 	ldrh.w	r2, [r0, #80]	; 0x50
 8001d9e:	f017 0c40 	ands.w	ip, r7, #64	; 0x40
 8001da2:	b292      	uxth	r2, r2
 8001da4:	4452      	add	r2, sl
 8001da6:	f407 4780 	and.w	r7, r7, #16384	; 0x4000
 8001daa:	f000 80dc 	beq.w	8001f66 <HAL_PCD_IRQHandler+0x6a2>
 8001dae:	3202      	adds	r2, #2
 8001db0:	f83e 2012 	ldrh.w	r2, [lr, r2, lsl #1]
 8001db4:	f04f 0c28 	mov.w	ip, #40	; 0x28
 8001db8:	f3c2 0209 	ubfx	r2, r2, #0, #10
 8001dbc:	429a      	cmp	r2, r3
 8001dbe:	bf28      	it	cs
 8001dc0:	2300      	movcs	r3, #0
 8001dc2:	fb0c 4c06 	mla	ip, ip, r6, r4
 8001dc6:	bf38      	it	cc
 8001dc8:	1a9b      	subcc	r3, r3, r2
 8001dca:	f8cc 3040 	str.w	r3, [ip, #64]	; 0x40
 8001dce:	b2bf      	uxth	r7, r7
 8001dd0:	2b00      	cmp	r3, #0
 8001dd2:	d14d      	bne.n	8001e70 <HAL_PCD_IRQHandler+0x5ac>
 8001dd4:	f895 2029 	ldrb.w	r2, [r5, #41]	; 0x29
 8001dd8:	2a00      	cmp	r2, #0
 8001dda:	d136      	bne.n	8001e4a <HAL_PCD_IRQHandler+0x586>
 8001ddc:	f8b0 6050 	ldrh.w	r6, [r0, #80]	; 0x50
 8001de0:	010b      	lsls	r3, r1, #4
 8001de2:	b2b2      	uxth	r2, r6
 8001de4:	f200 4604 	addw	r6, r0, #1028	; 0x404
 8001de8:	4416      	add	r6, r2
 8001dea:	5af2      	ldrh	r2, [r6, r3]
 8001dec:	f3c2 0209 	ubfx	r2, r2, #0, #10
 8001df0:	52f2      	strh	r2, [r6, r3]
 8001df2:	5af2      	ldrh	r2, [r6, r3]
 8001df4:	b292      	uxth	r2, r2
 8001df6:	f442 4200 	orr.w	r2, r2, #32768	; 0x8000
 8001dfa:	52f2      	strh	r2, [r6, r3]
 8001dfc:	f8b0 2050 	ldrh.w	r2, [r0, #80]	; 0x50
 8001e00:	f200 400c 	addw	r0, r0, #1036	; 0x40c
 8001e04:	b292      	uxth	r2, r2
 8001e06:	4410      	add	r0, r2
 8001e08:	5ac2      	ldrh	r2, [r0, r3]
 8001e0a:	f3c2 0209 	ubfx	r2, r2, #0, #10
 8001e0e:	52c2      	strh	r2, [r0, r3]
 8001e10:	5ac2      	ldrh	r2, [r0, r3]
 8001e12:	b292      	uxth	r2, r2
 8001e14:	f442 4200 	orr.w	r2, r2, #32768	; 0x8000
 8001e18:	52c2      	strh	r2, [r0, r3]
 8001e1a:	4620      	mov	r0, r4
 8001e1c:	f002 fd09 	bl	8004832 <HAL_PCD_DataInStageCallback>
 8001e20:	2f00      	cmp	r7, #0
 8001e22:	f000 80dc 	beq.w	8001fde <HAL_PCD_IRQHandler+0x71a>
 8001e26:	f895 1028 	ldrb.w	r1, [r5, #40]	; 0x28
 8001e2a:	6822      	ldr	r2, [r4, #0]
 8001e2c:	f832 3021 	ldrh.w	r3, [r2, r1, lsl #2]
 8001e30:	f423 43e0 	bic.w	r3, r3, #28672	; 0x7000
 8001e34:	f023 0370 	bic.w	r3, r3, #112	; 0x70
 8001e38:	041b      	lsls	r3, r3, #16
 8001e3a:	0c1b      	lsrs	r3, r3, #16
 8001e3c:	f443 4340 	orr.w	r3, r3, #49152	; 0xc000
 8001e40:	f043 0380 	orr.w	r3, r3, #128	; 0x80
 8001e44:	f822 3021 	strh.w	r3, [r2, r1, lsl #2]
 8001e48:	e0c9      	b.n	8001fde <HAL_PCD_IRQHandler+0x71a>
 8001e4a:	2a01      	cmp	r2, #1
 8001e4c:	d1e5      	bne.n	8001e1a <HAL_PCD_IRQHandler+0x556>
 8001e4e:	f8b0 6050 	ldrh.w	r6, [r0, #80]	; 0x50
 8001e52:	010a      	lsls	r2, r1, #4
 8001e54:	fa1f fc86 	uxth.w	ip, r6
 8001e58:	f200 4604 	addw	r6, r0, #1028	; 0x404
 8001e5c:	4466      	add	r6, ip
 8001e5e:	52b3      	strh	r3, [r6, r2]
 8001e60:	f8b0 6050 	ldrh.w	r6, [r0, #80]	; 0x50
 8001e64:	f200 400c 	addw	r0, r0, #1036	; 0x40c
 8001e68:	b2b6      	uxth	r6, r6
 8001e6a:	4430      	add	r0, r6
 8001e6c:	5283      	strh	r3, [r0, r2]
 8001e6e:	e7d4      	b.n	8001e1a <HAL_PCD_IRQHandler+0x556>
 8001e70:	b16f      	cbz	r7, 8001e8e <HAL_PCD_IRQHandler+0x5ca>
 8001e72:	f830 3021 	ldrh.w	r3, [r0, r1, lsl #2]
 8001e76:	f423 43e0 	bic.w	r3, r3, #28672	; 0x7000
 8001e7a:	f023 0370 	bic.w	r3, r3, #112	; 0x70
 8001e7e:	041b      	lsls	r3, r3, #16
 8001e80:	0c1b      	lsrs	r3, r3, #16
 8001e82:	f443 4340 	orr.w	r3, r3, #49152	; 0xc000
 8001e86:	f043 0380 	orr.w	r3, r3, #128	; 0x80
 8001e8a:	f820 3021 	strh.w	r3, [r0, r1, lsl #2]
 8001e8e:	2728      	movs	r7, #40	; 0x28
 8001e90:	fb07 4706 	mla	r7, r7, r6, r4
 8001e94:	f897 304c 	ldrb.w	r3, [r7, #76]	; 0x4c
 8001e98:	2b01      	cmp	r3, #1
 8001e9a:	f040 80a0 	bne.w	8001fde <HAL_PCD_IRQHandler+0x71a>
 8001e9e:	6bfb      	ldr	r3, [r7, #60]	; 0x3c
 8001ea0:	f8d7 e048 	ldr.w	lr, [r7, #72]	; 0x48
 8001ea4:	eb03 0c02 	add.w	ip, r3, r2
 8001ea8:	6c7b      	ldr	r3, [r7, #68]	; 0x44
 8001eaa:	f8c7 c03c 	str.w	ip, [r7, #60]	; 0x3c
 8001eae:	4413      	add	r3, r2
 8001eb0:	647b      	str	r3, [r7, #68]	; 0x44
 8001eb2:	6bbb      	ldr	r3, [r7, #56]	; 0x38
 8001eb4:	459e      	cmp	lr, r3
 8001eb6:	d32c      	bcc.n	8001f12 <HAL_PCD_IRQHandler+0x64e>
 8001eb8:	ebae 0203 	sub.w	r2, lr, r3
 8001ebc:	64ba      	str	r2, [r7, #72]	; 0x48
 8001ebe:	f895 2029 	ldrb.w	r2, [r5, #41]	; 0x29
 8001ec2:	fa1f fe83 	uxth.w	lr, r3
 8001ec6:	2a00      	cmp	r2, #0
 8001ec8:	d141      	bne.n	8001f4e <HAL_PCD_IRQHandler+0x68a>
 8001eca:	f8b0 2050 	ldrh.w	r2, [r0, #80]	; 0x50
 8001ece:	f200 4704 	addw	r7, r0, #1028	; 0x404
 8001ed2:	b292      	uxth	r2, r2
 8001ed4:	443a      	add	r2, r7
 8001ed6:	0109      	lsls	r1, r1, #4
 8001ed8:	5a57      	ldrh	r7, [r2, r1]
 8001eda:	2b3e      	cmp	r3, #62	; 0x3e
 8001edc:	f3c7 0709 	ubfx	r7, r7, #0, #10
 8001ee0:	5257      	strh	r7, [r2, r1]
 8001ee2:	d923      	bls.n	8001f2c <HAL_PCD_IRQHandler+0x668>
 8001ee4:	06df      	lsls	r7, r3, #27
 8001ee6:	5a57      	ldrh	r7, [r2, r1]
 8001ee8:	ea4f 1a53 	mov.w	sl, r3, lsr #5
 8001eec:	bf08      	it	eq
 8001eee:	f10a 3aff 	addeq.w	sl, sl, #4294967295
 8001ef2:	b2bf      	uxth	r7, r7
 8001ef4:	ea47 278a 	orr.w	r7, r7, sl, lsl #10
 8001ef8:	ea47 0708 	orr.w	r7, r7, r8
 8001efc:	b2bf      	uxth	r7, r7
 8001efe:	5257      	strh	r7, [r2, r1]
 8001f00:	2128      	movs	r1, #40	; 0x28
 8001f02:	4673      	mov	r3, lr
 8001f04:	fb01 4606 	mla	r6, r1, r6, r4
 8001f08:	4661      	mov	r1, ip
 8001f0a:	8e32      	ldrh	r2, [r6, #48]	; 0x30
 8001f0c:	f001 fc9e 	bl	800384c <USB_WritePMA>
 8001f10:	e065      	b.n	8001fde <HAL_PCD_IRQHandler+0x71a>
 8001f12:	f1be 0f00 	cmp.w	lr, #0
 8001f16:	d103      	bne.n	8001f20 <HAL_PCD_IRQHandler+0x65c>
 8001f18:	4613      	mov	r3, r2
 8001f1a:	f887 e04c 	strb.w	lr, [r7, #76]	; 0x4c
 8001f1e:	e7ce      	b.n	8001ebe <HAL_PCD_IRQHandler+0x5fa>
 8001f20:	2300      	movs	r3, #0
 8001f22:	f887 304c 	strb.w	r3, [r7, #76]	; 0x4c
 8001f26:	64bb      	str	r3, [r7, #72]	; 0x48
 8001f28:	4673      	mov	r3, lr
 8001f2a:	e7c8      	b.n	8001ebe <HAL_PCD_IRQHandler+0x5fa>
 8001f2c:	b92b      	cbnz	r3, 8001f3a <HAL_PCD_IRQHandler+0x676>
 8001f2e:	5a53      	ldrh	r3, [r2, r1]
 8001f30:	b29b      	uxth	r3, r3
 8001f32:	f443 4300 	orr.w	r3, r3, #32768	; 0x8000
 8001f36:	5253      	strh	r3, [r2, r1]
 8001f38:	e7e2      	b.n	8001f00 <HAL_PCD_IRQHandler+0x63c>
 8001f3a:	085f      	lsrs	r7, r3, #1
 8001f3c:	07db      	lsls	r3, r3, #31
 8001f3e:	5a53      	ldrh	r3, [r2, r1]
 8001f40:	bf48      	it	mi
 8001f42:	3701      	addmi	r7, #1
 8001f44:	b29b      	uxth	r3, r3
 8001f46:	ea43 2387 	orr.w	r3, r3, r7, lsl #10
 8001f4a:	b29b      	uxth	r3, r3
 8001f4c:	e7f3      	b.n	8001f36 <HAL_PCD_IRQHandler+0x672>
 8001f4e:	2a01      	cmp	r2, #1
 8001f50:	d1d6      	bne.n	8001f00 <HAL_PCD_IRQHandler+0x63c>
 8001f52:	f8b0 3050 	ldrh.w	r3, [r0, #80]	; 0x50
 8001f56:	0109      	lsls	r1, r1, #4
 8001f58:	b29a      	uxth	r2, r3
 8001f5a:	f200 4304 	addw	r3, r0, #1028	; 0x404
 8001f5e:	4413      	add	r3, r2
 8001f60:	f823 e001 	strh.w	lr, [r3, r1]
 8001f64:	e7cc      	b.n	8001f00 <HAL_PCD_IRQHandler+0x63c>
 8001f66:	3206      	adds	r2, #6
 8001f68:	f83e 2012 	ldrh.w	r2, [lr, r2, lsl #1]
 8001f6c:	b2bf      	uxth	r7, r7
 8001f6e:	f3c2 0209 	ubfx	r2, r2, #0, #10
 8001f72:	429a      	cmp	r2, r3
 8001f74:	bf88      	it	hi
 8001f76:	4663      	movhi	r3, ip
 8001f78:	f04f 0c28 	mov.w	ip, #40	; 0x28
 8001f7c:	fb0c 4c06 	mla	ip, ip, r6, r4
 8001f80:	bf98      	it	ls
 8001f82:	1a9b      	subls	r3, r3, r2
 8001f84:	f8cc 3040 	str.w	r3, [ip, #64]	; 0x40
 8001f88:	2b00      	cmp	r3, #0
 8001f8a:	d14e      	bne.n	800202a <HAL_PCD_IRQHandler+0x766>
 8001f8c:	f895 2029 	ldrb.w	r2, [r5, #41]	; 0x29
 8001f90:	2a00      	cmp	r2, #0
 8001f92:	d137      	bne.n	8002004 <HAL_PCD_IRQHandler+0x740>
 8001f94:	f8b0 6050 	ldrh.w	r6, [r0, #80]	; 0x50
 8001f98:	010b      	lsls	r3, r1, #4
 8001f9a:	b2b2      	uxth	r2, r6
 8001f9c:	f200 4604 	addw	r6, r0, #1028	; 0x404
 8001fa0:	4416      	add	r6, r2
 8001fa2:	5af2      	ldrh	r2, [r6, r3]
 8001fa4:	f3c2 0209 	ubfx	r2, r2, #0, #10
 8001fa8:	52f2      	strh	r2, [r6, r3]
 8001faa:	5af2      	ldrh	r2, [r6, r3]
 8001fac:	b292      	uxth	r2, r2
 8001fae:	f442 4200 	orr.w	r2, r2, #32768	; 0x8000
 8001fb2:	52f2      	strh	r2, [r6, r3]
 8001fb4:	f8b0 2050 	ldrh.w	r2, [r0, #80]	; 0x50
 8001fb8:	f200 400c 	addw	r0, r0, #1036	; 0x40c
 8001fbc:	b292      	uxth	r2, r2
 8001fbe:	4410      	add	r0, r2
 8001fc0:	5ac2      	ldrh	r2, [r0, r3]
 8001fc2:	f3c2 0209 	ubfx	r2, r2, #0, #10
 8001fc6:	52c2      	strh	r2, [r0, r3]
 8001fc8:	5ac2      	ldrh	r2, [r0, r3]
 8001fca:	b292      	uxth	r2, r2
 8001fcc:	f442 4200 	orr.w	r2, r2, #32768	; 0x8000
 8001fd0:	52c2      	strh	r2, [r0, r3]
 8001fd2:	4620      	mov	r0, r4
 8001fd4:	f002 fc2d 	bl	8004832 <HAL_PCD_DataInStageCallback>
 8001fd8:	2f00      	cmp	r7, #0
 8001fda:	f43f af24 	beq.w	8001e26 <HAL_PCD_IRQHandler+0x562>
 8001fde:	f895 1028 	ldrb.w	r1, [r5, #40]	; 0x28
 8001fe2:	6822      	ldr	r2, [r4, #0]
 8001fe4:	f832 3021 	ldrh.w	r3, [r2, r1, lsl #2]
 8001fe8:	b29b      	uxth	r3, r3
 8001fea:	f423 43e0 	bic.w	r3, r3, #28672	; 0x7000
 8001fee:	f023 0340 	bic.w	r3, r3, #64	; 0x40
 8001ff2:	f083 0330 	eor.w	r3, r3, #48	; 0x30
 8001ff6:	f443 4300 	orr.w	r3, r3, #32768	; 0x8000
 8001ffa:	f043 0380 	orr.w	r3, r3, #128	; 0x80
 8001ffe:	f822 3021 	strh.w	r3, [r2, r1, lsl #2]
 8002002:	e46e      	b.n	80018e2 <HAL_PCD_IRQHandler+0x1e>
 8002004:	2a01      	cmp	r2, #1
 8002006:	d1e4      	bne.n	8001fd2 <HAL_PCD_IRQHandler+0x70e>
 8002008:	f8b0 6050 	ldrh.w	r6, [r0, #80]	; 0x50
 800200c:	010a      	lsls	r2, r1, #4
 800200e:	fa1f fc86 	uxth.w	ip, r6
 8002012:	f200 4604 	addw	r6, r0, #1028	; 0x404
 8002016:	4466      	add	r6, ip
 8002018:	52b3      	strh	r3, [r6, r2]
 800201a:	f8b0 6050 	ldrh.w	r6, [r0, #80]	; 0x50
 800201e:	f200 400c 	addw	r0, r0, #1036	; 0x40c
 8002022:	b2b6      	uxth	r6, r6
 8002024:	4430      	add	r0, r6
 8002026:	5283      	strh	r3, [r0, r2]
 8002028:	e7d3      	b.n	8001fd2 <HAL_PCD_IRQHandler+0x70e>
 800202a:	b96f      	cbnz	r7, 8002048 <HAL_PCD_IRQHandler+0x784>
 800202c:	f830 3021 	ldrh.w	r3, [r0, r1, lsl #2]
 8002030:	f423 43e0 	bic.w	r3, r3, #28672	; 0x7000
 8002034:	f023 0370 	bic.w	r3, r3, #112	; 0x70
 8002038:	041b      	lsls	r3, r3, #16
 800203a:	0c1b      	lsrs	r3, r3, #16
 800203c:	f443 4340 	orr.w	r3, r3, #49152	; 0xc000
 8002040:	f043 0380 	orr.w	r3, r3, #128	; 0x80
 8002044:	f820 3021 	strh.w	r3, [r0, r1, lsl #2]
 8002048:	f04f 0c28 	mov.w	ip, #40	; 0x28
 800204c:	fb0c 4c06 	mla	ip, ip, r6, r4
 8002050:	f89c 304c 	ldrb.w	r3, [ip, #76]	; 0x4c
 8002054:	2b01      	cmp	r3, #1
 8002056:	d1c2      	bne.n	8001fde <HAL_PCD_IRQHandler+0x71a>
 8002058:	f8dc 3044 	ldr.w	r3, [ip, #68]	; 0x44
 800205c:	f8dc 703c 	ldr.w	r7, [ip, #60]	; 0x3c
 8002060:	4413      	add	r3, r2
 8002062:	f8dc e048 	ldr.w	lr, [ip, #72]	; 0x48
 8002066:	f8cc 3044 	str.w	r3, [ip, #68]	; 0x44
 800206a:	f8dc 3038 	ldr.w	r3, [ip, #56]	; 0x38
 800206e:	4417      	add	r7, r2
 8002070:	459e      	cmp	lr, r3
 8002072:	f8cc 703c 	str.w	r7, [ip, #60]	; 0x3c
 8002076:	d326      	bcc.n	80020c6 <HAL_PCD_IRQHandler+0x802>
 8002078:	ebae 0203 	sub.w	r2, lr, r3
 800207c:	f8cc 2048 	str.w	r2, [ip, #72]	; 0x48
 8002080:	f895 2029 	ldrb.w	r2, [r5, #41]	; 0x29
 8002084:	fa1f fc83 	uxth.w	ip, r3
 8002088:	2a00      	cmp	r2, #0
 800208a:	d142      	bne.n	8002112 <HAL_PCD_IRQHandler+0x84e>
 800208c:	f8b0 2050 	ldrh.w	r2, [r0, #80]	; 0x50
 8002090:	f200 4e0c 	addw	lr, r0, #1036	; 0x40c
 8002094:	b292      	uxth	r2, r2
 8002096:	4472      	add	r2, lr
 8002098:	0109      	lsls	r1, r1, #4
 800209a:	f832 e001 	ldrh.w	lr, [r2, r1]
 800209e:	2b3e      	cmp	r3, #62	; 0x3e
 80020a0:	f3ce 0e09 	ubfx	lr, lr, #0, #10
 80020a4:	f822 e001 	strh.w	lr, [r2, r1]
 80020a8:	d91b      	bls.n	80020e2 <HAL_PCD_IRQHandler+0x81e>
 80020aa:	ea4f 1e53 	mov.w	lr, r3, lsr #5
 80020ae:	06db      	lsls	r3, r3, #27
 80020b0:	5a53      	ldrh	r3, [r2, r1]
 80020b2:	bf08      	it	eq
 80020b4:	f10e 3eff 	addeq.w	lr, lr, #4294967295
 80020b8:	b29b      	uxth	r3, r3
 80020ba:	ea43 238e 	orr.w	r3, r3, lr, lsl #10
 80020be:	ea43 0308 	orr.w	r3, r3, r8
 80020c2:	b29b      	uxth	r3, r3
 80020c4:	e012      	b.n	80020ec <HAL_PCD_IRQHandler+0x828>
 80020c6:	f1be 0f00 	cmp.w	lr, #0
 80020ca:	d103      	bne.n	80020d4 <HAL_PCD_IRQHandler+0x810>
 80020cc:	4613      	mov	r3, r2
 80020ce:	f88c e04c 	strb.w	lr, [ip, #76]	; 0x4c
 80020d2:	e7d5      	b.n	8002080 <HAL_PCD_IRQHandler+0x7bc>
 80020d4:	2300      	movs	r3, #0
 80020d6:	f8cc 3048 	str.w	r3, [ip, #72]	; 0x48
 80020da:	f88c 304c 	strb.w	r3, [ip, #76]	; 0x4c
 80020de:	4673      	mov	r3, lr
 80020e0:	e7ce      	b.n	8002080 <HAL_PCD_IRQHandler+0x7bc>
 80020e2:	b95b      	cbnz	r3, 80020fc <HAL_PCD_IRQHandler+0x838>
 80020e4:	5a53      	ldrh	r3, [r2, r1]
 80020e6:	b29b      	uxth	r3, r3
 80020e8:	f443 4300 	orr.w	r3, r3, #32768	; 0x8000
 80020ec:	5253      	strh	r3, [r2, r1]
 80020ee:	2128      	movs	r1, #40	; 0x28
 80020f0:	fb01 4606 	mla	r6, r1, r6, r4
 80020f4:	4663      	mov	r3, ip
 80020f6:	4639      	mov	r1, r7
 80020f8:	8e72      	ldrh	r2, [r6, #50]	; 0x32
 80020fa:	e707      	b.n	8001f0c <HAL_PCD_IRQHandler+0x648>
 80020fc:	ea4f 0e53 	mov.w	lr, r3, lsr #1
 8002100:	07db      	lsls	r3, r3, #31
 8002102:	5a53      	ldrh	r3, [r2, r1]
 8002104:	bf48      	it	mi
 8002106:	f10e 0e01 	addmi.w	lr, lr, #1
 800210a:	b29b      	uxth	r3, r3
 800210c:	ea43 238e 	orr.w	r3, r3, lr, lsl #10
 8002110:	e7d7      	b.n	80020c2 <HAL_PCD_IRQHandler+0x7fe>
 8002112:	2a01      	cmp	r2, #1
 8002114:	d1eb      	bne.n	80020ee <HAL_PCD_IRQHandler+0x82a>
 8002116:	f8b0 3050 	ldrh.w	r3, [r0, #80]	; 0x50
 800211a:	b29a      	uxth	r2, r3
 800211c:	f200 430c 	addw	r3, r0, #1036	; 0x40c
 8002120:	4413      	add	r3, r2
 8002122:	010a      	lsls	r2, r1, #4
 8002124:	f823 c002 	strh.w	ip, [r3, r2]
 8002128:	e7e1      	b.n	80020ee <HAL_PCD_IRQHandler+0x82a>
 800212a:	0546      	lsls	r6, r0, #21
 800212c:	d512      	bpl.n	8002154 <HAL_PCD_IRQHandler+0x890>
 800212e:	6822      	ldr	r2, [r4, #0]
 8002130:	4620      	mov	r0, r4
 8002132:	f8b2 3044 	ldrh.w	r3, [r2, #68]	; 0x44
 8002136:	f423 6380 	bic.w	r3, r3, #1024	; 0x400
 800213a:	041b      	lsls	r3, r3, #16
 800213c:	0c1b      	lsrs	r3, r3, #16
 800213e:	f8a2 3044 	strh.w	r3, [r2, #68]	; 0x44
 8002142:	f002 fb82 	bl	800484a <HAL_PCD_ResetCallback>
 8002146:	4629      	mov	r1, r5
 8002148:	4620      	mov	r0, r4
 800214a:	b005      	add	sp, #20
 800214c:	e8bd 4ff0 	ldmia.w	sp!, {r4, r5, r6, r7, r8, r9, sl, fp, lr}
 8002150:	f7ff bba3 	b.w	800189a <HAL_PCD_SetAddress>
 8002154:	0441      	lsls	r1, r0, #17
 8002156:	d50a      	bpl.n	800216e <HAL_PCD_IRQHandler+0x8aa>
 8002158:	6822      	ldr	r2, [r4, #0]
 800215a:	f8b2 3044 	ldrh.w	r3, [r2, #68]	; 0x44
 800215e:	f423 4380 	bic.w	r3, r3, #16384	; 0x4000
 8002162:	041b      	lsls	r3, r3, #16
 8002164:	0c1b      	lsrs	r3, r3, #16
 8002166:	f8a2 3044 	strh.w	r3, [r2, #68]	; 0x44
 800216a:	f7ff bbbf 	b.w	80018ec <HAL_PCD_IRQHandler+0x28>
 800216e:	0482      	lsls	r2, r0, #18
 8002170:	d505      	bpl.n	800217e <HAL_PCD_IRQHandler+0x8ba>
 8002172:	6822      	ldr	r2, [r4, #0]
 8002174:	f8b2 3044 	ldrh.w	r3, [r2, #68]	; 0x44
 8002178:	f423 5300 	bic.w	r3, r3, #8192	; 0x2000
 800217c:	e7f1      	b.n	8002162 <HAL_PCD_IRQHandler+0x89e>
 800217e:	04c3      	lsls	r3, r0, #19
 8002180:	d519      	bpl.n	80021b6 <HAL_PCD_IRQHandler+0x8f2>
 8002182:	6822      	ldr	r2, [r4, #0]
 8002184:	4620      	mov	r0, r4
 8002186:	f8b2 3040 	ldrh.w	r3, [r2, #64]	; 0x40
 800218a:	f023 0304 	bic.w	r3, r3, #4
 800218e:	041b      	lsls	r3, r3, #16
 8002190:	0c1b      	lsrs	r3, r3, #16
 8002192:	f8a2 3040 	strh.w	r3, [r2, #64]	; 0x40
 8002196:	f8b2 3040 	ldrh.w	r3, [r2, #64]	; 0x40
 800219a:	f023 0308 	bic.w	r3, r3, #8
 800219e:	041b      	lsls	r3, r3, #16
 80021a0:	0c1b      	lsrs	r3, r3, #16
 80021a2:	f8a2 3040 	strh.w	r3, [r2, #64]	; 0x40
 80021a6:	f002 fb73 	bl	8004890 <HAL_PCD_ResumeCallback>
 80021aa:	6822      	ldr	r2, [r4, #0]
 80021ac:	f8b2 3044 	ldrh.w	r3, [r2, #68]	; 0x44
 80021b0:	f423 5380 	bic.w	r3, r3, #4096	; 0x1000
 80021b4:	e7d5      	b.n	8002162 <HAL_PCD_IRQHandler+0x89e>
 80021b6:	0507      	lsls	r7, r0, #20
 80021b8:	d548      	bpl.n	800224c <HAL_PCD_IRQHandler+0x988>
 80021ba:	4668      	mov	r0, sp
 80021bc:	6822      	ldr	r2, [r4, #0]
 80021be:	4606      	mov	r6, r0
 80021c0:	4611      	mov	r1, r2
 80021c2:	4613      	mov	r3, r2
 80021c4:	f102 0520 	add.w	r5, r2, #32
 80021c8:	f833 7b04 	ldrh.w	r7, [r3], #4
 80021cc:	429d      	cmp	r5, r3
 80021ce:	f826 7b02 	strh.w	r7, [r6], #2
 80021d2:	d1f9      	bne.n	80021c8 <HAL_PCD_IRQHandler+0x904>
 80021d4:	f8b2 3040 	ldrh.w	r3, [r2, #64]	; 0x40
 80021d8:	b29b      	uxth	r3, r3
 80021da:	f043 0301 	orr.w	r3, r3, #1
 80021de:	f8a2 3040 	strh.w	r3, [r2, #64]	; 0x40
 80021e2:	f8b2 3040 	ldrh.w	r3, [r2, #64]	; 0x40
 80021e6:	f023 0301 	bic.w	r3, r3, #1
 80021ea:	041b      	lsls	r3, r3, #16
 80021ec:	0c1b      	lsrs	r3, r3, #16
 80021ee:	f8a2 3040 	strh.w	r3, [r2, #64]	; 0x40
 80021f2:	f8b2 3044 	ldrh.w	r3, [r2, #68]	; 0x44
 80021f6:	055e      	lsls	r6, r3, #21
 80021f8:	d5fb      	bpl.n	80021f2 <HAL_PCD_IRQHandler+0x92e>
 80021fa:	f8b2 3044 	ldrh.w	r3, [r2, #68]	; 0x44
 80021fe:	f423 6380 	bic.w	r3, r3, #1024	; 0x400
 8002202:	041b      	lsls	r3, r3, #16
 8002204:	0c1b      	lsrs	r3, r3, #16
 8002206:	f8a2 3044 	strh.w	r3, [r2, #68]	; 0x44
 800220a:	f830 3b02 	ldrh.w	r3, [r0], #2
 800220e:	f821 3b04 	strh.w	r3, [r1], #4
 8002212:	428d      	cmp	r5, r1
 8002214:	d1f9      	bne.n	800220a <HAL_PCD_IRQHandler+0x946>
 8002216:	f8b2 3040 	ldrh.w	r3, [r2, #64]	; 0x40
 800221a:	4620      	mov	r0, r4
 800221c:	b29b      	uxth	r3, r3
 800221e:	f043 0308 	orr.w	r3, r3, #8
 8002222:	f8a2 3040 	strh.w	r3, [r2, #64]	; 0x40
 8002226:	f8b2 3044 	ldrh.w	r3, [r2, #68]	; 0x44
 800222a:	f423 6300 	bic.w	r3, r3, #2048	; 0x800
 800222e:	041b      	lsls	r3, r3, #16
 8002230:	0c1b      	lsrs	r3, r3, #16
 8002232:	f8a2 3044 	strh.w	r3, [r2, #68]	; 0x44
 8002236:	f8b2 3040 	ldrh.w	r3, [r2, #64]	; 0x40
 800223a:	b29b      	uxth	r3, r3
 800223c:	f043 0304 	orr.w	r3, r3, #4
 8002240:	f8a2 3040 	strh.w	r3, [r2, #64]	; 0x40
 8002244:	f002 fb14 	bl	8004870 <HAL_PCD_SuspendCallback>
 8002248:	f7ff bb50 	b.w	80018ec <HAL_PCD_IRQHandler+0x28>
 800224c:	0582      	lsls	r2, r0, #22
 800224e:	d50d      	bpl.n	800226c <HAL_PCD_IRQHandler+0x9a8>
 8002250:	6822      	ldr	r2, [r4, #0]
 8002252:	4620      	mov	r0, r4
 8002254:	f8b2 3044 	ldrh.w	r3, [r2, #68]	; 0x44
 8002258:	f423 7300 	bic.w	r3, r3, #512	; 0x200
 800225c:	041b      	lsls	r3, r3, #16
 800225e:	0c1b      	lsrs	r3, r3, #16
 8002260:	f8a2 3044 	strh.w	r3, [r2, #68]	; 0x44
 8002264:	f002 faed 	bl	8004842 <HAL_PCD_SOFCallback>
 8002268:	f7ff bb40 	b.w	80018ec <HAL_PCD_IRQHandler+0x28>
 800226c:	05c3      	lsls	r3, r0, #23
 800226e:	f57f ab3d 	bpl.w	80018ec <HAL_PCD_IRQHandler+0x28>
 8002272:	6822      	ldr	r2, [r4, #0]
 8002274:	f8b2 3044 	ldrh.w	r3, [r2, #68]	; 0x44
 8002278:	f423 7380 	bic.w	r3, r3, #256	; 0x100
 800227c:	e771      	b.n	8002162 <HAL_PCD_IRQHandler+0x89e>
 800227e:	bf00      	nop

08002280 <HAL_PCD_EP_Open>:
 8002280:	f011 0f80 	tst.w	r1, #128	; 0x80
 8002284:	b570      	push	{r4, r5, r6, lr}
 8002286:	4605      	mov	r5, r0
 8002288:	f04f 0428 	mov.w	r4, #40	; 0x28
 800228c:	f001 0007 	and.w	r0, r1, #7
 8002290:	d01a      	beq.n	80022c8 <HAL_PCD_EP_Open+0x48>
 8002292:	2601      	movs	r6, #1
 8002294:	fb00 4104 	mla	r1, r0, r4, r4
 8002298:	4429      	add	r1, r5
 800229a:	704e      	strb	r6, [r1, #1]
 800229c:	2b02      	cmp	r3, #2
 800229e:	70cb      	strb	r3, [r1, #3]
 80022a0:	bf08      	it	eq
 80022a2:	2300      	moveq	r3, #0
 80022a4:	7008      	strb	r0, [r1, #0]
 80022a6:	bf08      	it	eq
 80022a8:	710b      	strbeq	r3, [r1, #4]
 80022aa:	610a      	str	r2, [r1, #16]
 80022ac:	f895 32a8 	ldrb.w	r3, [r5, #680]	; 0x2a8
 80022b0:	2b01      	cmp	r3, #1
 80022b2:	d012      	beq.n	80022da <HAL_PCD_EP_Open+0x5a>
 80022b4:	2301      	movs	r3, #1
 80022b6:	6828      	ldr	r0, [r5, #0]
 80022b8:	f885 32a8 	strb.w	r3, [r5, #680]	; 0x2a8
 80022bc:	f001 f81a 	bl	80032f4 <USB_ActivateEndpoint>
 80022c0:	2000      	movs	r0, #0
 80022c2:	f885 02a8 	strb.w	r0, [r5, #680]	; 0x2a8
 80022c6:	bd70      	pop	{r4, r5, r6, pc}
 80022c8:	2600      	movs	r6, #0
 80022ca:	4344      	muls	r4, r0
 80022cc:	f504 71b4 	add.w	r1, r4, #360	; 0x168
 80022d0:	442c      	add	r4, r5
 80022d2:	4429      	add	r1, r5
 80022d4:	f884 6169 	strb.w	r6, [r4, #361]	; 0x169
 80022d8:	e7e0      	b.n	800229c <HAL_PCD_EP_Open+0x1c>
 80022da:	2002      	movs	r0, #2
 80022dc:	e7f3      	b.n	80022c6 <HAL_PCD_EP_Open+0x46>

080022de <HAL_PCD_EP_Close>:
 80022de:	f011 0f80 	tst.w	r1, #128	; 0x80
 80022e2:	b510      	push	{r4, lr}
 80022e4:	f04f 0328 	mov.w	r3, #40	; 0x28
 80022e8:	4604      	mov	r4, r0
 80022ea:	f001 0207 	and.w	r2, r1, #7
 80022ee:	d013      	beq.n	8002318 <HAL_PCD_EP_Close+0x3a>
 80022f0:	fb02 3103 	mla	r1, r2, r3, r3
 80022f4:	4401      	add	r1, r0
 80022f6:	2001      	movs	r0, #1
 80022f8:	7048      	strb	r0, [r1, #1]
 80022fa:	700a      	strb	r2, [r1, #0]
 80022fc:	f894 32a8 	ldrb.w	r3, [r4, #680]	; 0x2a8
 8002300:	2b01      	cmp	r3, #1
 8002302:	d012      	beq.n	800232a <HAL_PCD_EP_Close+0x4c>
 8002304:	2301      	movs	r3, #1
 8002306:	6820      	ldr	r0, [r4, #0]
 8002308:	f884 32a8 	strb.w	r3, [r4, #680]	; 0x2a8
 800230c:	f001 f954 	bl	80035b8 <USB_DeactivateEndpoint>
 8002310:	2000      	movs	r0, #0
 8002312:	f884 02a8 	strb.w	r0, [r4, #680]	; 0x2a8
 8002316:	bd10      	pop	{r4, pc}
 8002318:	4353      	muls	r3, r2
 800231a:	f503 71b4 	add.w	r1, r3, #360	; 0x168
 800231e:	4401      	add	r1, r0
 8002320:	4403      	add	r3, r0
 8002322:	2000      	movs	r0, #0
 8002324:	f883 0169 	strb.w	r0, [r3, #361]	; 0x169
 8002328:	e7e7      	b.n	80022fa <HAL_PCD_EP_Close+0x1c>
 800232a:	2002      	movs	r0, #2
 800232c:	e7f3      	b.n	8002316 <HAL_PCD_EP_Close+0x38>

0800232e <HAL_PCD_EP_Receive>:
 800232e:	b570      	push	{r4, r5, r6, lr}
 8002330:	f001 0507 	and.w	r5, r1, #7
 8002334:	2128      	movs	r1, #40	; 0x28
 8002336:	2600      	movs	r6, #0
 8002338:	4369      	muls	r1, r5
 800233a:	1844      	adds	r4, r0, r1
 800233c:	f501 71b4 	add.w	r1, r1, #360	; 0x168
 8002340:	4401      	add	r1, r0
 8002342:	e9c4 235f 	strd	r2, r3, [r4, #380]	; 0x17c
 8002346:	f8c4 6184 	str.w	r6, [r4, #388]	; 0x184
 800234a:	f884 6169 	strb.w	r6, [r4, #361]	; 0x169
 800234e:	f884 5168 	strb.w	r5, [r4, #360]	; 0x168
 8002352:	6800      	ldr	r0, [r0, #0]
 8002354:	f001 fa8a 	bl	800386c <USB_EPStartXfer>
 8002358:	4630      	mov	r0, r6
 800235a:	bd70      	pop	{r4, r5, r6, pc}

0800235c <HAL_PCD_EP_Transmit>:
 800235c:	b570      	push	{r4, r5, r6, lr}
 800235e:	f001 0507 	and.w	r5, r1, #7
 8002362:	2128      	movs	r1, #40	; 0x28
 8002364:	fb01 0405 	mla	r4, r1, r5, r0
 8002368:	2600      	movs	r6, #0
 800236a:	e9c4 230f 	strd	r2, r3, [r4, #60]	; 0x3c
 800236e:	2201      	movs	r2, #1
 8002370:	fb05 1101 	mla	r1, r5, r1, r1
 8002374:	f884 204c 	strb.w	r2, [r4, #76]	; 0x4c
 8002378:	4401      	add	r1, r0
 800237a:	64a3      	str	r3, [r4, #72]	; 0x48
 800237c:	6466      	str	r6, [r4, #68]	; 0x44
 800237e:	f884 2029 	strb.w	r2, [r4, #41]	; 0x29
 8002382:	f884 5028 	strb.w	r5, [r4, #40]	; 0x28
 8002386:	6800      	ldr	r0, [r0, #0]
 8002388:	f001 fa70 	bl	800386c <USB_EPStartXfer>
 800238c:	4630      	mov	r0, r6
 800238e:	bd70      	pop	{r4, r5, r6, pc}

08002390 <HAL_PCD_EP_SetStall>:
 8002390:	b538      	push	{r3, r4, r5, lr}
 8002392:	6843      	ldr	r3, [r0, #4]
 8002394:	f001 0507 	and.w	r5, r1, #7
 8002398:	429d      	cmp	r5, r3
 800239a:	4604      	mov	r4, r0
 800239c:	d828      	bhi.n	80023f0 <HAL_PCD_EP_SetStall+0x60>
 800239e:	f011 0f80 	tst.w	r1, #128	; 0x80
 80023a2:	f04f 0328 	mov.w	r3, #40	; 0x28
 80023a6:	d01a      	beq.n	80023de <HAL_PCD_EP_SetStall+0x4e>
 80023a8:	2201      	movs	r2, #1
 80023aa:	fb05 3103 	mla	r1, r5, r3, r3
 80023ae:	4401      	add	r1, r0
 80023b0:	704a      	strb	r2, [r1, #1]
 80023b2:	2301      	movs	r3, #1
 80023b4:	700d      	strb	r5, [r1, #0]
 80023b6:	708b      	strb	r3, [r1, #2]
 80023b8:	f894 22a8 	ldrb.w	r2, [r4, #680]	; 0x2a8
 80023bc:	429a      	cmp	r2, r3
 80023be:	d019      	beq.n	80023f4 <HAL_PCD_EP_SetStall+0x64>
 80023c0:	6820      	ldr	r0, [r4, #0]
 80023c2:	f884 32a8 	strb.w	r3, [r4, #680]	; 0x2a8
 80023c6:	f001 f9c8 	bl	800375a <USB_EPSetStall>
 80023ca:	b925      	cbnz	r5, 80023d6 <HAL_PCD_EP_SetStall+0x46>
 80023cc:	6820      	ldr	r0, [r4, #0]
 80023ce:	f504 712c 	add.w	r1, r4, #688	; 0x2b0
 80023d2:	f001 fa39 	bl	8003848 <USB_EP0_OutStart>
 80023d6:	2000      	movs	r0, #0
 80023d8:	f884 02a8 	strb.w	r0, [r4, #680]	; 0x2a8
 80023dc:	bd38      	pop	{r3, r4, r5, pc}
 80023de:	2200      	movs	r2, #0
 80023e0:	434b      	muls	r3, r1
 80023e2:	f503 71b4 	add.w	r1, r3, #360	; 0x168
 80023e6:	4403      	add	r3, r0
 80023e8:	4401      	add	r1, r0
 80023ea:	f883 2169 	strb.w	r2, [r3, #361]	; 0x169
 80023ee:	e7e0      	b.n	80023b2 <HAL_PCD_EP_SetStall+0x22>
 80023f0:	2001      	movs	r0, #1
 80023f2:	e7f3      	b.n	80023dc <HAL_PCD_EP_SetStall+0x4c>
 80023f4:	2002      	movs	r0, #2
 80023f6:	e7f1      	b.n	80023dc <HAL_PCD_EP_SetStall+0x4c>

080023f8 <HAL_PCD_EP_ClrStall>:
 80023f8:	b538      	push	{r3, r4, r5, lr}
 80023fa:	6843      	ldr	r3, [r0, #4]
 80023fc:	f001 020f 	and.w	r2, r1, #15
 8002400:	429a      	cmp	r2, r3
 8002402:	4604      	mov	r4, r0
 8002404:	d825      	bhi.n	8002452 <HAL_PCD_EP_ClrStall+0x5a>
 8002406:	f011 0f80 	tst.w	r1, #128	; 0x80
 800240a:	f04f 0328 	mov.w	r3, #40	; 0x28
 800240e:	f001 0207 	and.w	r2, r1, #7
 8002412:	d015      	beq.n	8002440 <HAL_PCD_EP_ClrStall+0x48>
 8002414:	fb02 3103 	mla	r1, r2, r3, r3
 8002418:	4401      	add	r1, r0
 800241a:	2001      	movs	r0, #1
 800241c:	7048      	strb	r0, [r1, #1]
 800241e:	2500      	movs	r5, #0
 8002420:	700a      	strb	r2, [r1, #0]
 8002422:	708d      	strb	r5, [r1, #2]
 8002424:	f894 32a8 	ldrb.w	r3, [r4, #680]	; 0x2a8
 8002428:	2b01      	cmp	r3, #1
 800242a:	d014      	beq.n	8002456 <HAL_PCD_EP_ClrStall+0x5e>
 800242c:	2301      	movs	r3, #1
 800242e:	6820      	ldr	r0, [r4, #0]
 8002430:	f884 32a8 	strb.w	r3, [r4, #680]	; 0x2a8
 8002434:	f001 f9b1 	bl	800379a <USB_EPClearStall>
 8002438:	4628      	mov	r0, r5
 800243a:	f884 52a8 	strb.w	r5, [r4, #680]	; 0x2a8
 800243e:	bd38      	pop	{r3, r4, r5, pc}
 8002440:	4353      	muls	r3, r2
 8002442:	f503 71b4 	add.w	r1, r3, #360	; 0x168
 8002446:	4401      	add	r1, r0
 8002448:	4403      	add	r3, r0
 800244a:	2000      	movs	r0, #0
 800244c:	f883 0169 	strb.w	r0, [r3, #361]	; 0x169
 8002450:	e7e5      	b.n	800241e <HAL_PCD_EP_ClrStall+0x26>
 8002452:	2001      	movs	r0, #1
 8002454:	e7f3      	b.n	800243e <HAL_PCD_EP_ClrStall+0x46>
 8002456:	2002      	movs	r0, #2
 8002458:	e7f1      	b.n	800243e <HAL_PCD_EP_ClrStall+0x46>

0800245a <HAL_PCDEx_PMAConfig>:
 800245a:	b510      	push	{r4, lr}
 800245c:	2428      	movs	r4, #40	; 0x28
 800245e:	f011 0f80 	tst.w	r1, #128	; 0x80
 8002462:	bf1b      	ittet	ne
 8002464:	f001 0107 	andne.w	r1, r1, #7
 8002468:	fb01 4104 	mlane	r1, r1, r4, r4
 800246c:	fb04 0001 	mlaeq	r0, r4, r1, r0
 8002470:	1840      	addne	r0, r0, r1
 8002472:	bf08      	it	eq
 8002474:	f500 70b4 	addeq.w	r0, r0, #360	; 0x168
 8002478:	b299      	uxth	r1, r3
 800247a:	b91a      	cbnz	r2, 8002484 <HAL_PCDEx_PMAConfig+0x2a>
 800247c:	7302      	strb	r2, [r0, #12]
 800247e:	80c1      	strh	r1, [r0, #6]
 8002480:	2000      	movs	r0, #0
 8002482:	bd10      	pop	{r4, pc}
 8002484:	2201      	movs	r2, #1
 8002486:	6083      	str	r3, [r0, #8]
 8002488:	7302      	strb	r2, [r0, #12]
 800248a:	e7f9      	b.n	8002480 <HAL_PCDEx_PMAConfig+0x26>

0800248c <HAL_RCC_OscConfig>:
 800248c:	e92d 41f3 	stmdb	sp!, {r0, r1, r4, r5, r6, r7, r8, lr}
 8002490:	4605      	mov	r5, r0
 8002492:	b338      	cbz	r0, 80024e4 <HAL_RCC_OscConfig+0x58>
 8002494:	6803      	ldr	r3, [r0, #0]
 8002496:	07db      	lsls	r3, r3, #31
 8002498:	d410      	bmi.n	80024bc <HAL_RCC_OscConfig+0x30>
 800249a:	682b      	ldr	r3, [r5, #0]
 800249c:	079f      	lsls	r7, r3, #30
 800249e:	d45e      	bmi.n	800255e <HAL_RCC_OscConfig+0xd2>
 80024a0:	682b      	ldr	r3, [r5, #0]
 80024a2:	0719      	lsls	r1, r3, #28
 80024a4:	f100 8095 	bmi.w	80025d2 <HAL_RCC_OscConfig+0x146>
 80024a8:	682b      	ldr	r3, [r5, #0]
 80024aa:	075a      	lsls	r2, r3, #29
 80024ac:	f100 80c1 	bmi.w	8002632 <HAL_RCC_OscConfig+0x1a6>
 80024b0:	69e8      	ldr	r0, [r5, #28]
 80024b2:	2800      	cmp	r0, #0
 80024b4:	f040 812c 	bne.w	8002710 <HAL_RCC_OscConfig+0x284>
 80024b8:	2000      	movs	r0, #0
 80024ba:	e029      	b.n	8002510 <HAL_RCC_OscConfig+0x84>
 80024bc:	4c90      	ldr	r4, [pc, #576]	; (8002700 <HAL_RCC_OscConfig+0x274>)
 80024be:	6863      	ldr	r3, [r4, #4]
 80024c0:	f003 030c 	and.w	r3, r3, #12
 80024c4:	2b04      	cmp	r3, #4
 80024c6:	d007      	beq.n	80024d8 <HAL_RCC_OscConfig+0x4c>
 80024c8:	6863      	ldr	r3, [r4, #4]
 80024ca:	f003 030c 	and.w	r3, r3, #12
 80024ce:	2b08      	cmp	r3, #8
 80024d0:	d10a      	bne.n	80024e8 <HAL_RCC_OscConfig+0x5c>
 80024d2:	6863      	ldr	r3, [r4, #4]
 80024d4:	03de      	lsls	r6, r3, #15
 80024d6:	d507      	bpl.n	80024e8 <HAL_RCC_OscConfig+0x5c>
 80024d8:	6823      	ldr	r3, [r4, #0]
 80024da:	039c      	lsls	r4, r3, #14
 80024dc:	d5dd      	bpl.n	800249a <HAL_RCC_OscConfig+0xe>
 80024de:	686b      	ldr	r3, [r5, #4]
 80024e0:	2b00      	cmp	r3, #0
 80024e2:	d1da      	bne.n	800249a <HAL_RCC_OscConfig+0xe>
 80024e4:	2001      	movs	r0, #1
 80024e6:	e013      	b.n	8002510 <HAL_RCC_OscConfig+0x84>
 80024e8:	686b      	ldr	r3, [r5, #4]
 80024ea:	f5b3 3f80 	cmp.w	r3, #65536	; 0x10000
 80024ee:	d112      	bne.n	8002516 <HAL_RCC_OscConfig+0x8a>
 80024f0:	6823      	ldr	r3, [r4, #0]
 80024f2:	f443 3380 	orr.w	r3, r3, #65536	; 0x10000
 80024f6:	6023      	str	r3, [r4, #0]
 80024f8:	f7fe fc04 	bl	8000d04 <HAL_GetTick>
 80024fc:	4606      	mov	r6, r0
 80024fe:	6823      	ldr	r3, [r4, #0]
 8002500:	0398      	lsls	r0, r3, #14
 8002502:	d4ca      	bmi.n	800249a <HAL_RCC_OscConfig+0xe>
 8002504:	f7fe fbfe 	bl	8000d04 <HAL_GetTick>
 8002508:	1b80      	subs	r0, r0, r6
 800250a:	2864      	cmp	r0, #100	; 0x64
 800250c:	d9f7      	bls.n	80024fe <HAL_RCC_OscConfig+0x72>
 800250e:	2003      	movs	r0, #3
 8002510:	b002      	add	sp, #8
 8002512:	e8bd 81f0 	ldmia.w	sp!, {r4, r5, r6, r7, r8, pc}
 8002516:	b99b      	cbnz	r3, 8002540 <HAL_RCC_OscConfig+0xb4>
 8002518:	6823      	ldr	r3, [r4, #0]
 800251a:	f423 3380 	bic.w	r3, r3, #65536	; 0x10000
 800251e:	6023      	str	r3, [r4, #0]
 8002520:	6823      	ldr	r3, [r4, #0]
 8002522:	f423 2380 	bic.w	r3, r3, #262144	; 0x40000
 8002526:	6023      	str	r3, [r4, #0]
 8002528:	f7fe fbec 	bl	8000d04 <HAL_GetTick>
 800252c:	4606      	mov	r6, r0
 800252e:	6823      	ldr	r3, [r4, #0]
 8002530:	0399      	lsls	r1, r3, #14
 8002532:	d5b2      	bpl.n	800249a <HAL_RCC_OscConfig+0xe>
 8002534:	f7fe fbe6 	bl	8000d04 <HAL_GetTick>
 8002538:	1b80      	subs	r0, r0, r6
 800253a:	2864      	cmp	r0, #100	; 0x64
 800253c:	d9f7      	bls.n	800252e <HAL_RCC_OscConfig+0xa2>
 800253e:	e7e6      	b.n	800250e <HAL_RCC_OscConfig+0x82>
 8002540:	f5b3 2fa0 	cmp.w	r3, #327680	; 0x50000
 8002544:	6823      	ldr	r3, [r4, #0]
 8002546:	d103      	bne.n	8002550 <HAL_RCC_OscConfig+0xc4>
 8002548:	f443 2380 	orr.w	r3, r3, #262144	; 0x40000
 800254c:	6023      	str	r3, [r4, #0]
 800254e:	e7cf      	b.n	80024f0 <HAL_RCC_OscConfig+0x64>
 8002550:	f423 3380 	bic.w	r3, r3, #65536	; 0x10000
 8002554:	6023      	str	r3, [r4, #0]
 8002556:	6823      	ldr	r3, [r4, #0]
 8002558:	f423 2380 	bic.w	r3, r3, #262144	; 0x40000
 800255c:	e7cb      	b.n	80024f6 <HAL_RCC_OscConfig+0x6a>
 800255e:	4c68      	ldr	r4, [pc, #416]	; (8002700 <HAL_RCC_OscConfig+0x274>)
 8002560:	6863      	ldr	r3, [r4, #4]
 8002562:	f013 0f0c 	tst.w	r3, #12
 8002566:	d007      	beq.n	8002578 <HAL_RCC_OscConfig+0xec>
 8002568:	6863      	ldr	r3, [r4, #4]
 800256a:	f003 030c 	and.w	r3, r3, #12
 800256e:	2b08      	cmp	r3, #8
 8002570:	d110      	bne.n	8002594 <HAL_RCC_OscConfig+0x108>
 8002572:	6863      	ldr	r3, [r4, #4]
 8002574:	03da      	lsls	r2, r3, #15
 8002576:	d40d      	bmi.n	8002594 <HAL_RCC_OscConfig+0x108>
 8002578:	6823      	ldr	r3, [r4, #0]
 800257a:	079b      	lsls	r3, r3, #30
 800257c:	d502      	bpl.n	8002584 <HAL_RCC_OscConfig+0xf8>
 800257e:	692b      	ldr	r3, [r5, #16]
 8002580:	2b01      	cmp	r3, #1
 8002582:	d1af      	bne.n	80024e4 <HAL_RCC_OscConfig+0x58>
 8002584:	6823      	ldr	r3, [r4, #0]
 8002586:	696a      	ldr	r2, [r5, #20]
 8002588:	f023 03f8 	bic.w	r3, r3, #248	; 0xf8
 800258c:	ea43 03c2 	orr.w	r3, r3, r2, lsl #3
 8002590:	6023      	str	r3, [r4, #0]
 8002592:	e785      	b.n	80024a0 <HAL_RCC_OscConfig+0x14>
 8002594:	692a      	ldr	r2, [r5, #16]
 8002596:	4b5b      	ldr	r3, [pc, #364]	; (8002704 <HAL_RCC_OscConfig+0x278>)
 8002598:	b16a      	cbz	r2, 80025b6 <HAL_RCC_OscConfig+0x12a>
 800259a:	2201      	movs	r2, #1
 800259c:	601a      	str	r2, [r3, #0]
 800259e:	f7fe fbb1 	bl	8000d04 <HAL_GetTick>
 80025a2:	4606      	mov	r6, r0
 80025a4:	6823      	ldr	r3, [r4, #0]
 80025a6:	079f      	lsls	r7, r3, #30
 80025a8:	d4ec      	bmi.n	8002584 <HAL_RCC_OscConfig+0xf8>
 80025aa:	f7fe fbab 	bl	8000d04 <HAL_GetTick>
 80025ae:	1b80      	subs	r0, r0, r6
 80025b0:	2802      	cmp	r0, #2
 80025b2:	d9f7      	bls.n	80025a4 <HAL_RCC_OscConfig+0x118>
 80025b4:	e7ab      	b.n	800250e <HAL_RCC_OscConfig+0x82>
 80025b6:	601a      	str	r2, [r3, #0]
 80025b8:	f7fe fba4 	bl	8000d04 <HAL_GetTick>
 80025bc:	4606      	mov	r6, r0
 80025be:	6823      	ldr	r3, [r4, #0]
 80025c0:	0798      	lsls	r0, r3, #30
 80025c2:	f57f af6d 	bpl.w	80024a0 <HAL_RCC_OscConfig+0x14>
 80025c6:	f7fe fb9d 	bl	8000d04 <HAL_GetTick>
 80025ca:	1b80      	subs	r0, r0, r6
 80025cc:	2802      	cmp	r0, #2
 80025ce:	d9f6      	bls.n	80025be <HAL_RCC_OscConfig+0x132>
 80025d0:	e79d      	b.n	800250e <HAL_RCC_OscConfig+0x82>
 80025d2:	69aa      	ldr	r2, [r5, #24]
 80025d4:	4e4a      	ldr	r6, [pc, #296]	; (8002700 <HAL_RCC_OscConfig+0x274>)
 80025d6:	4b4b      	ldr	r3, [pc, #300]	; (8002704 <HAL_RCC_OscConfig+0x278>)
 80025d8:	b1e2      	cbz	r2, 8002614 <HAL_RCC_OscConfig+0x188>
 80025da:	2201      	movs	r2, #1
 80025dc:	f8c3 2480 	str.w	r2, [r3, #1152]	; 0x480
 80025e0:	f7fe fb90 	bl	8000d04 <HAL_GetTick>
 80025e4:	4604      	mov	r4, r0
 80025e6:	6a73      	ldr	r3, [r6, #36]	; 0x24
 80025e8:	079b      	lsls	r3, r3, #30
 80025ea:	d50d      	bpl.n	8002608 <HAL_RCC_OscConfig+0x17c>
 80025ec:	f44f 52fa 	mov.w	r2, #8000	; 0x1f40
 80025f0:	4b45      	ldr	r3, [pc, #276]	; (8002708 <HAL_RCC_OscConfig+0x27c>)
 80025f2:	681b      	ldr	r3, [r3, #0]
 80025f4:	fbb3 f3f2 	udiv	r3, r3, r2
 80025f8:	9301      	str	r3, [sp, #4]
 80025fa:	bf00      	nop
 80025fc:	9b01      	ldr	r3, [sp, #4]
 80025fe:	1e5a      	subs	r2, r3, #1
 8002600:	9201      	str	r2, [sp, #4]
 8002602:	2b00      	cmp	r3, #0
 8002604:	d1f9      	bne.n	80025fa <HAL_RCC_OscConfig+0x16e>
 8002606:	e74f      	b.n	80024a8 <HAL_RCC_OscConfig+0x1c>
 8002608:	f7fe fb7c 	bl	8000d04 <HAL_GetTick>
 800260c:	1b00      	subs	r0, r0, r4
 800260e:	2802      	cmp	r0, #2
 8002610:	d9e9      	bls.n	80025e6 <HAL_RCC_OscConfig+0x15a>
 8002612:	e77c      	b.n	800250e <HAL_RCC_OscConfig+0x82>
 8002614:	f8c3 2480 	str.w	r2, [r3, #1152]	; 0x480
 8002618:	f7fe fb74 	bl	8000d04 <HAL_GetTick>
 800261c:	4604      	mov	r4, r0
 800261e:	6a73      	ldr	r3, [r6, #36]	; 0x24
 8002620:	079f      	lsls	r7, r3, #30
 8002622:	f57f af41 	bpl.w	80024a8 <HAL_RCC_OscConfig+0x1c>
 8002626:	f7fe fb6d 	bl	8000d04 <HAL_GetTick>
 800262a:	1b00      	subs	r0, r0, r4
 800262c:	2802      	cmp	r0, #2
 800262e:	d9f6      	bls.n	800261e <HAL_RCC_OscConfig+0x192>
 8002630:	e76d      	b.n	800250e <HAL_RCC_OscConfig+0x82>
 8002632:	4c33      	ldr	r4, [pc, #204]	; (8002700 <HAL_RCC_OscConfig+0x274>)
 8002634:	69e3      	ldr	r3, [r4, #28]
 8002636:	00d8      	lsls	r0, r3, #3
 8002638:	d424      	bmi.n	8002684 <HAL_RCC_OscConfig+0x1f8>
 800263a:	2701      	movs	r7, #1
 800263c:	69e3      	ldr	r3, [r4, #28]
 800263e:	f043 5380 	orr.w	r3, r3, #268435456	; 0x10000000
 8002642:	61e3      	str	r3, [r4, #28]
 8002644:	69e3      	ldr	r3, [r4, #28]
 8002646:	f003 5380 	and.w	r3, r3, #268435456	; 0x10000000
 800264a:	9300      	str	r3, [sp, #0]
 800264c:	9b00      	ldr	r3, [sp, #0]
 800264e:	4e2f      	ldr	r6, [pc, #188]	; (800270c <HAL_RCC_OscConfig+0x280>)
 8002650:	6833      	ldr	r3, [r6, #0]
 8002652:	05d9      	lsls	r1, r3, #23
 8002654:	d518      	bpl.n	8002688 <HAL_RCC_OscConfig+0x1fc>
 8002656:	68eb      	ldr	r3, [r5, #12]
 8002658:	2b01      	cmp	r3, #1
 800265a:	d126      	bne.n	80026aa <HAL_RCC_OscConfig+0x21e>
 800265c:	6a23      	ldr	r3, [r4, #32]
 800265e:	f043 0301 	orr.w	r3, r3, #1
 8002662:	6223      	str	r3, [r4, #32]
 8002664:	f7fe fb4e 	bl	8000d04 <HAL_GetTick>
 8002668:	f241 3888 	movw	r8, #5000	; 0x1388
 800266c:	4606      	mov	r6, r0
 800266e:	6a23      	ldr	r3, [r4, #32]
 8002670:	079b      	lsls	r3, r3, #30
 8002672:	d53f      	bpl.n	80026f4 <HAL_RCC_OscConfig+0x268>
 8002674:	2f00      	cmp	r7, #0
 8002676:	f43f af1b 	beq.w	80024b0 <HAL_RCC_OscConfig+0x24>
 800267a:	69e3      	ldr	r3, [r4, #28]
 800267c:	f023 5380 	bic.w	r3, r3, #268435456	; 0x10000000
 8002680:	61e3      	str	r3, [r4, #28]
 8002682:	e715      	b.n	80024b0 <HAL_RCC_OscConfig+0x24>
 8002684:	2700      	movs	r7, #0
 8002686:	e7e2      	b.n	800264e <HAL_RCC_OscConfig+0x1c2>
 8002688:	6833      	ldr	r3, [r6, #0]
 800268a:	f443 7380 	orr.w	r3, r3, #256	; 0x100
 800268e:	6033      	str	r3, [r6, #0]
 8002690:	f7fe fb38 	bl	8000d04 <HAL_GetTick>
 8002694:	4680      	mov	r8, r0
 8002696:	6833      	ldr	r3, [r6, #0]
 8002698:	05da      	lsls	r2, r3, #23
 800269a:	d4dc      	bmi.n	8002656 <HAL_RCC_OscConfig+0x1ca>
 800269c:	f7fe fb32 	bl	8000d04 <HAL_GetTick>
 80026a0:	eba0 0008 	sub.w	r0, r0, r8
 80026a4:	2864      	cmp	r0, #100	; 0x64
 80026a6:	d9f6      	bls.n	8002696 <HAL_RCC_OscConfig+0x20a>
 80026a8:	e731      	b.n	800250e <HAL_RCC_OscConfig+0x82>
 80026aa:	b9ab      	cbnz	r3, 80026d8 <HAL_RCC_OscConfig+0x24c>
 80026ac:	6a23      	ldr	r3, [r4, #32]
 80026ae:	f241 3888 	movw	r8, #5000	; 0x1388
 80026b2:	f023 0301 	bic.w	r3, r3, #1
 80026b6:	6223      	str	r3, [r4, #32]
 80026b8:	6a23      	ldr	r3, [r4, #32]
 80026ba:	f023 0304 	bic.w	r3, r3, #4
 80026be:	6223      	str	r3, [r4, #32]
 80026c0:	f7fe fb20 	bl	8000d04 <HAL_GetTick>
 80026c4:	4606      	mov	r6, r0
 80026c6:	6a23      	ldr	r3, [r4, #32]
 80026c8:	0798      	lsls	r0, r3, #30
 80026ca:	d5d3      	bpl.n	8002674 <HAL_RCC_OscConfig+0x1e8>
 80026cc:	f7fe fb1a 	bl	8000d04 <HAL_GetTick>
 80026d0:	1b80      	subs	r0, r0, r6
 80026d2:	4540      	cmp	r0, r8
 80026d4:	d9f7      	bls.n	80026c6 <HAL_RCC_OscConfig+0x23a>
 80026d6:	e71a      	b.n	800250e <HAL_RCC_OscConfig+0x82>
 80026d8:	2b05      	cmp	r3, #5
 80026da:	6a23      	ldr	r3, [r4, #32]
 80026dc:	d103      	bne.n	80026e6 <HAL_RCC_OscConfig+0x25a>
 80026de:	f043 0304 	orr.w	r3, r3, #4
 80026e2:	6223      	str	r3, [r4, #32]
 80026e4:	e7ba      	b.n	800265c <HAL_RCC_OscConfig+0x1d0>
 80026e6:	f023 0301 	bic.w	r3, r3, #1
 80026ea:	6223      	str	r3, [r4, #32]
 80026ec:	6a23      	ldr	r3, [r4, #32]
 80026ee:	f023 0304 	bic.w	r3, r3, #4
 80026f2:	e7b6      	b.n	8002662 <HAL_RCC_OscConfig+0x1d6>
 80026f4:	f7fe fb06 	bl	8000d04 <HAL_GetTick>
 80026f8:	1b80      	subs	r0, r0, r6
 80026fa:	4540      	cmp	r0, r8
 80026fc:	d9b7      	bls.n	800266e <HAL_RCC_OscConfig+0x1e2>
 80026fe:	e706      	b.n	800250e <HAL_RCC_OscConfig+0x82>
 8002700:	40021000 	.word	0x40021000
 8002704:	42420000 	.word	0x42420000
 8002708:	20000000 	.word	0x20000000
 800270c:	40007000 	.word	0x40007000
 8002710:	4c2a      	ldr	r4, [pc, #168]	; (80027bc <HAL_RCC_OscConfig+0x330>)
 8002712:	6863      	ldr	r3, [r4, #4]
 8002714:	f003 030c 	and.w	r3, r3, #12
 8002718:	2b08      	cmp	r3, #8
 800271a:	d03e      	beq.n	800279a <HAL_RCC_OscConfig+0x30e>
 800271c:	2200      	movs	r2, #0
 800271e:	4b28      	ldr	r3, [pc, #160]	; (80027c0 <HAL_RCC_OscConfig+0x334>)
 8002720:	2802      	cmp	r0, #2
 8002722:	661a      	str	r2, [r3, #96]	; 0x60
 8002724:	d12c      	bne.n	8002780 <HAL_RCC_OscConfig+0x2f4>
 8002726:	f7fe faed 	bl	8000d04 <HAL_GetTick>
 800272a:	4606      	mov	r6, r0
 800272c:	6823      	ldr	r3, [r4, #0]
 800272e:	0199      	lsls	r1, r3, #6
 8002730:	d420      	bmi.n	8002774 <HAL_RCC_OscConfig+0x2e8>
 8002732:	6a2b      	ldr	r3, [r5, #32]
 8002734:	f5b3 3f80 	cmp.w	r3, #65536	; 0x10000
 8002738:	d105      	bne.n	8002746 <HAL_RCC_OscConfig+0x2ba>
 800273a:	6862      	ldr	r2, [r4, #4]
 800273c:	68a9      	ldr	r1, [r5, #8]
 800273e:	f422 3200 	bic.w	r2, r2, #131072	; 0x20000
 8002742:	430a      	orrs	r2, r1
 8002744:	6062      	str	r2, [r4, #4]
 8002746:	6a69      	ldr	r1, [r5, #36]	; 0x24
 8002748:	6862      	ldr	r2, [r4, #4]
 800274a:	430b      	orrs	r3, r1
 800274c:	f422 1274 	bic.w	r2, r2, #3997696	; 0x3d0000
 8002750:	4313      	orrs	r3, r2
 8002752:	2201      	movs	r2, #1
 8002754:	6063      	str	r3, [r4, #4]
 8002756:	4b1a      	ldr	r3, [pc, #104]	; (80027c0 <HAL_RCC_OscConfig+0x334>)
 8002758:	661a      	str	r2, [r3, #96]	; 0x60
 800275a:	f7fe fad3 	bl	8000d04 <HAL_GetTick>
 800275e:	4605      	mov	r5, r0
 8002760:	6823      	ldr	r3, [r4, #0]
 8002762:	019a      	lsls	r2, r3, #6
 8002764:	f53f aea8 	bmi.w	80024b8 <HAL_RCC_OscConfig+0x2c>
 8002768:	f7fe facc 	bl	8000d04 <HAL_GetTick>
 800276c:	1b40      	subs	r0, r0, r5
 800276e:	2802      	cmp	r0, #2
 8002770:	d9f6      	bls.n	8002760 <HAL_RCC_OscConfig+0x2d4>
 8002772:	e6cc      	b.n	800250e <HAL_RCC_OscConfig+0x82>
 8002774:	f7fe fac6 	bl	8000d04 <HAL_GetTick>
 8002778:	1b80      	subs	r0, r0, r6
 800277a:	2802      	cmp	r0, #2
 800277c:	d9d6      	bls.n	800272c <HAL_RCC_OscConfig+0x2a0>
 800277e:	e6c6      	b.n	800250e <HAL_RCC_OscConfig+0x82>
 8002780:	f7fe fac0 	bl	8000d04 <HAL_GetTick>
 8002784:	4605      	mov	r5, r0
 8002786:	6823      	ldr	r3, [r4, #0]
 8002788:	019b      	lsls	r3, r3, #6
 800278a:	f57f ae95 	bpl.w	80024b8 <HAL_RCC_OscConfig+0x2c>
 800278e:	f7fe fab9 	bl	8000d04 <HAL_GetTick>
 8002792:	1b40      	subs	r0, r0, r5
 8002794:	2802      	cmp	r0, #2
 8002796:	d9f6      	bls.n	8002786 <HAL_RCC_OscConfig+0x2fa>
 8002798:	e6b9      	b.n	800250e <HAL_RCC_OscConfig+0x82>
 800279a:	2801      	cmp	r0, #1
 800279c:	f43f aeb8 	beq.w	8002510 <HAL_RCC_OscConfig+0x84>
 80027a0:	6863      	ldr	r3, [r4, #4]
 80027a2:	6a2a      	ldr	r2, [r5, #32]
 80027a4:	f403 3180 	and.w	r1, r3, #65536	; 0x10000
 80027a8:	4291      	cmp	r1, r2
 80027aa:	f47f ae9b 	bne.w	80024e4 <HAL_RCC_OscConfig+0x58>
 80027ae:	6a6a      	ldr	r2, [r5, #36]	; 0x24
 80027b0:	f403 1370 	and.w	r3, r3, #3932160	; 0x3c0000
 80027b4:	4293      	cmp	r3, r2
 80027b6:	f43f ae7f 	beq.w	80024b8 <HAL_RCC_OscConfig+0x2c>
 80027ba:	e693      	b.n	80024e4 <HAL_RCC_OscConfig+0x58>
 80027bc:	40021000 	.word	0x40021000
 80027c0:	42420000 	.word	0x42420000

080027c4 <HAL_RCC_GetSysClockFreq>:
 80027c4:	4a0d      	ldr	r2, [pc, #52]	; (80027fc <HAL_RCC_GetSysClockFreq+0x38>)
 80027c6:	6853      	ldr	r3, [r2, #4]
 80027c8:	f003 010c 	and.w	r1, r3, #12
 80027cc:	2908      	cmp	r1, #8
 80027ce:	d112      	bne.n	80027f6 <HAL_RCC_GetSysClockFreq+0x32>
 80027d0:	480b      	ldr	r0, [pc, #44]	; (8002800 <HAL_RCC_GetSysClockFreq+0x3c>)
 80027d2:	f3c3 4183 	ubfx	r1, r3, #18, #4
 80027d6:	03db      	lsls	r3, r3, #15
 80027d8:	5c40      	ldrb	r0, [r0, r1]
 80027da:	d509      	bpl.n	80027f0 <HAL_RCC_GetSysClockFreq+0x2c>
 80027dc:	6853      	ldr	r3, [r2, #4]
 80027de:	4a09      	ldr	r2, [pc, #36]	; (8002804 <HAL_RCC_GetSysClockFreq+0x40>)
 80027e0:	f3c3 4340 	ubfx	r3, r3, #17, #1
 80027e4:	4350      	muls	r0, r2
 80027e6:	4a08      	ldr	r2, [pc, #32]	; (8002808 <HAL_RCC_GetSysClockFreq+0x44>)
 80027e8:	5cd3      	ldrb	r3, [r2, r3]
 80027ea:	fbb0 f0f3 	udiv	r0, r0, r3
 80027ee:	4770      	bx	lr
 80027f0:	4b06      	ldr	r3, [pc, #24]	; (800280c <HAL_RCC_GetSysClockFreq+0x48>)
 80027f2:	4358      	muls	r0, r3
 80027f4:	4770      	bx	lr
 80027f6:	4803      	ldr	r0, [pc, #12]	; (8002804 <HAL_RCC_GetSysClockFreq+0x40>)
 80027f8:	4770      	bx	lr
 80027fa:	bf00      	nop
 80027fc:	40021000 	.word	0x40021000
 8002800:	08004c1a 	.word	0x08004c1a
 8002804:	007a1200 	.word	0x007a1200
 8002808:	08004c2a 	.word	0x08004c2a
 800280c:	003d0900 	.word	0x003d0900

08002810 <HAL_RCC_ClockConfig>:
 8002810:	e92d 41f0 	stmdb	sp!, {r4, r5, r6, r7, r8, lr}
 8002814:	460d      	mov	r5, r1
 8002816:	4604      	mov	r4, r0
 8002818:	b910      	cbnz	r0, 8002820 <HAL_RCC_ClockConfig+0x10>
 800281a:	2001      	movs	r0, #1
 800281c:	e8bd 81f0 	ldmia.w	sp!, {r4, r5, r6, r7, r8, pc}
 8002820:	4a44      	ldr	r2, [pc, #272]	; (8002934 <HAL_RCC_ClockConfig+0x124>)
 8002822:	6813      	ldr	r3, [r2, #0]
 8002824:	f003 0307 	and.w	r3, r3, #7
 8002828:	428b      	cmp	r3, r1
 800282a:	d328      	bcc.n	800287e <HAL_RCC_ClockConfig+0x6e>
 800282c:	6821      	ldr	r1, [r4, #0]
 800282e:	078e      	lsls	r6, r1, #30
 8002830:	d430      	bmi.n	8002894 <HAL_RCC_ClockConfig+0x84>
 8002832:	07ca      	lsls	r2, r1, #31
 8002834:	d443      	bmi.n	80028be <HAL_RCC_ClockConfig+0xae>
 8002836:	4a3f      	ldr	r2, [pc, #252]	; (8002934 <HAL_RCC_ClockConfig+0x124>)
 8002838:	6813      	ldr	r3, [r2, #0]
 800283a:	f003 0307 	and.w	r3, r3, #7
 800283e:	42ab      	cmp	r3, r5
 8002840:	d865      	bhi.n	800290e <HAL_RCC_ClockConfig+0xfe>
 8002842:	6822      	ldr	r2, [r4, #0]
 8002844:	4d3c      	ldr	r5, [pc, #240]	; (8002938 <HAL_RCC_ClockConfig+0x128>)
 8002846:	f012 0f04 	tst.w	r2, #4
 800284a:	d16c      	bne.n	8002926 <HAL_RCC_ClockConfig+0x116>
 800284c:	0713      	lsls	r3, r2, #28
 800284e:	d506      	bpl.n	800285e <HAL_RCC_ClockConfig+0x4e>
 8002850:	686b      	ldr	r3, [r5, #4]
 8002852:	6922      	ldr	r2, [r4, #16]
 8002854:	f423 5360 	bic.w	r3, r3, #14336	; 0x3800
 8002858:	ea43 03c2 	orr.w	r3, r3, r2, lsl #3
 800285c:	606b      	str	r3, [r5, #4]
 800285e:	f7ff ffb1 	bl	80027c4 <HAL_RCC_GetSysClockFreq>
 8002862:	686b      	ldr	r3, [r5, #4]
 8002864:	4a35      	ldr	r2, [pc, #212]	; (800293c <HAL_RCC_ClockConfig+0x12c>)
 8002866:	f3c3 1303 	ubfx	r3, r3, #4, #4
 800286a:	5cd3      	ldrb	r3, [r2, r3]
 800286c:	40d8      	lsrs	r0, r3
 800286e:	4b34      	ldr	r3, [pc, #208]	; (8002940 <HAL_RCC_ClockConfig+0x130>)
 8002870:	6018      	str	r0, [r3, #0]
 8002872:	4b34      	ldr	r3, [pc, #208]	; (8002944 <HAL_RCC_ClockConfig+0x134>)
 8002874:	6818      	ldr	r0, [r3, #0]
 8002876:	f7fe fa03 	bl	8000c80 <HAL_InitTick>
 800287a:	2000      	movs	r0, #0
 800287c:	e7ce      	b.n	800281c <HAL_RCC_ClockConfig+0xc>
 800287e:	6813      	ldr	r3, [r2, #0]
 8002880:	f023 0307 	bic.w	r3, r3, #7
 8002884:	430b      	orrs	r3, r1
 8002886:	6013      	str	r3, [r2, #0]
 8002888:	6813      	ldr	r3, [r2, #0]
 800288a:	f003 0307 	and.w	r3, r3, #7
 800288e:	428b      	cmp	r3, r1
 8002890:	d1c3      	bne.n	800281a <HAL_RCC_ClockConfig+0xa>
 8002892:	e7cb      	b.n	800282c <HAL_RCC_ClockConfig+0x1c>
 8002894:	4b28      	ldr	r3, [pc, #160]	; (8002938 <HAL_RCC_ClockConfig+0x128>)
 8002896:	f011 0f04 	tst.w	r1, #4
 800289a:	bf1e      	ittt	ne
 800289c:	685a      	ldrne	r2, [r3, #4]
 800289e:	f442 62e0 	orrne.w	r2, r2, #1792	; 0x700
 80028a2:	605a      	strne	r2, [r3, #4]
 80028a4:	0708      	lsls	r0, r1, #28
 80028a6:	bf42      	ittt	mi
 80028a8:	685a      	ldrmi	r2, [r3, #4]
 80028aa:	f442 5260 	orrmi.w	r2, r2, #14336	; 0x3800
 80028ae:	605a      	strmi	r2, [r3, #4]
 80028b0:	685a      	ldr	r2, [r3, #4]
 80028b2:	68a0      	ldr	r0, [r4, #8]
 80028b4:	f022 02f0 	bic.w	r2, r2, #240	; 0xf0
 80028b8:	4302      	orrs	r2, r0
 80028ba:	605a      	str	r2, [r3, #4]
 80028bc:	e7b9      	b.n	8002832 <HAL_RCC_ClockConfig+0x22>
 80028be:	6862      	ldr	r2, [r4, #4]
 80028c0:	4e1d      	ldr	r6, [pc, #116]	; (8002938 <HAL_RCC_ClockConfig+0x128>)
 80028c2:	2a01      	cmp	r2, #1
 80028c4:	6833      	ldr	r3, [r6, #0]
 80028c6:	d11a      	bne.n	80028fe <HAL_RCC_ClockConfig+0xee>
 80028c8:	f413 3f00 	tst.w	r3, #131072	; 0x20000
 80028cc:	d0a5      	beq.n	800281a <HAL_RCC_ClockConfig+0xa>
 80028ce:	6873      	ldr	r3, [r6, #4]
 80028d0:	f241 3888 	movw	r8, #5000	; 0x1388
 80028d4:	f023 0303 	bic.w	r3, r3, #3
 80028d8:	4313      	orrs	r3, r2
 80028da:	6073      	str	r3, [r6, #4]
 80028dc:	f7fe fa12 	bl	8000d04 <HAL_GetTick>
 80028e0:	4607      	mov	r7, r0
 80028e2:	6873      	ldr	r3, [r6, #4]
 80028e4:	6862      	ldr	r2, [r4, #4]
 80028e6:	f003 030c 	and.w	r3, r3, #12
 80028ea:	ebb3 0f82 	cmp.w	r3, r2, lsl #2
 80028ee:	d0a2      	beq.n	8002836 <HAL_RCC_ClockConfig+0x26>
 80028f0:	f7fe fa08 	bl	8000d04 <HAL_GetTick>
 80028f4:	1bc0      	subs	r0, r0, r7
 80028f6:	4540      	cmp	r0, r8
 80028f8:	d9f3      	bls.n	80028e2 <HAL_RCC_ClockConfig+0xd2>
 80028fa:	2003      	movs	r0, #3
 80028fc:	e78e      	b.n	800281c <HAL_RCC_ClockConfig+0xc>
 80028fe:	2a02      	cmp	r2, #2
 8002900:	d102      	bne.n	8002908 <HAL_RCC_ClockConfig+0xf8>
 8002902:	f013 7f00 	tst.w	r3, #33554432	; 0x2000000
 8002906:	e7e1      	b.n	80028cc <HAL_RCC_ClockConfig+0xbc>
 8002908:	f013 0f02 	tst.w	r3, #2
 800290c:	e7de      	b.n	80028cc <HAL_RCC_ClockConfig+0xbc>
 800290e:	6813      	ldr	r3, [r2, #0]
 8002910:	f023 0307 	bic.w	r3, r3, #7
 8002914:	432b      	orrs	r3, r5
 8002916:	6013      	str	r3, [r2, #0]
 8002918:	6813      	ldr	r3, [r2, #0]
 800291a:	f003 0307 	and.w	r3, r3, #7
 800291e:	42ab      	cmp	r3, r5
 8002920:	f47f af7b 	bne.w	800281a <HAL_RCC_ClockConfig+0xa>
 8002924:	e78d      	b.n	8002842 <HAL_RCC_ClockConfig+0x32>
 8002926:	686b      	ldr	r3, [r5, #4]
 8002928:	68e1      	ldr	r1, [r4, #12]
 800292a:	f423 63e0 	bic.w	r3, r3, #1792	; 0x700
 800292e:	430b      	orrs	r3, r1
 8002930:	606b      	str	r3, [r5, #4]
 8002932:	e78b      	b.n	800284c <HAL_RCC_ClockConfig+0x3c>
 8002934:	40022000 	.word	0x40022000
 8002938:	40021000 	.word	0x40021000
 800293c:	08004c0a 	.word	0x08004c0a
 8002940:	20000000 	.word	0x20000000
 8002944:	20000008 	.word	0x20000008

08002948 <HAL_RCCEx_PeriphCLKConfig>:
 8002948:	6803      	ldr	r3, [r0, #0]
 800294a:	e92d 41f3 	stmdb	sp!, {r0, r1, r4, r5, r6, r7, r8, lr}
 800294e:	07d9      	lsls	r1, r3, #31
 8002950:	4605      	mov	r5, r0
 8002952:	d520      	bpl.n	8002996 <HAL_RCCEx_PeriphCLKConfig+0x4e>
 8002954:	4c36      	ldr	r4, [pc, #216]	; (8002a30 <HAL_RCCEx_PeriphCLKConfig+0xe8>)
 8002956:	69e3      	ldr	r3, [r4, #28]
 8002958:	00da      	lsls	r2, r3, #3
 800295a:	d432      	bmi.n	80029c2 <HAL_RCCEx_PeriphCLKConfig+0x7a>
 800295c:	2601      	movs	r6, #1
 800295e:	69e3      	ldr	r3, [r4, #28]
 8002960:	f043 5380 	orr.w	r3, r3, #268435456	; 0x10000000
 8002964:	61e3      	str	r3, [r4, #28]
 8002966:	69e3      	ldr	r3, [r4, #28]
 8002968:	f003 5380 	and.w	r3, r3, #268435456	; 0x10000000
 800296c:	9301      	str	r3, [sp, #4]
 800296e:	9b01      	ldr	r3, [sp, #4]
 8002970:	4f30      	ldr	r7, [pc, #192]	; (8002a34 <HAL_RCCEx_PeriphCLKConfig+0xec>)
 8002972:	683b      	ldr	r3, [r7, #0]
 8002974:	05db      	lsls	r3, r3, #23
 8002976:	d526      	bpl.n	80029c6 <HAL_RCCEx_PeriphCLKConfig+0x7e>
 8002978:	6a23      	ldr	r3, [r4, #32]
 800297a:	f413 7340 	ands.w	r3, r3, #768	; 0x300
 800297e:	d136      	bne.n	80029ee <HAL_RCCEx_PeriphCLKConfig+0xa6>
 8002980:	6a23      	ldr	r3, [r4, #32]
 8002982:	686a      	ldr	r2, [r5, #4]
 8002984:	f423 7340 	bic.w	r3, r3, #768	; 0x300
 8002988:	4313      	orrs	r3, r2
 800298a:	6223      	str	r3, [r4, #32]
 800298c:	b11e      	cbz	r6, 8002996 <HAL_RCCEx_PeriphCLKConfig+0x4e>
 800298e:	69e3      	ldr	r3, [r4, #28]
 8002990:	f023 5380 	bic.w	r3, r3, #268435456	; 0x10000000
 8002994:	61e3      	str	r3, [r4, #28]
 8002996:	6828      	ldr	r0, [r5, #0]
 8002998:	0783      	lsls	r3, r0, #30
 800299a:	d506      	bpl.n	80029aa <HAL_RCCEx_PeriphCLKConfig+0x62>
 800299c:	4924      	ldr	r1, [pc, #144]	; (8002a30 <HAL_RCCEx_PeriphCLKConfig+0xe8>)
 800299e:	68ab      	ldr	r3, [r5, #8]
 80029a0:	684a      	ldr	r2, [r1, #4]
 80029a2:	f422 4240 	bic.w	r2, r2, #49152	; 0xc000
 80029a6:	431a      	orrs	r2, r3
 80029a8:	604a      	str	r2, [r1, #4]
 80029aa:	f010 0010 	ands.w	r0, r0, #16
 80029ae:	d01b      	beq.n	80029e8 <HAL_RCCEx_PeriphCLKConfig+0xa0>
 80029b0:	4a1f      	ldr	r2, [pc, #124]	; (8002a30 <HAL_RCCEx_PeriphCLKConfig+0xe8>)
 80029b2:	68e9      	ldr	r1, [r5, #12]
 80029b4:	6853      	ldr	r3, [r2, #4]
 80029b6:	2000      	movs	r0, #0
 80029b8:	f423 0380 	bic.w	r3, r3, #4194304	; 0x400000
 80029bc:	430b      	orrs	r3, r1
 80029be:	6053      	str	r3, [r2, #4]
 80029c0:	e012      	b.n	80029e8 <HAL_RCCEx_PeriphCLKConfig+0xa0>
 80029c2:	2600      	movs	r6, #0
 80029c4:	e7d4      	b.n	8002970 <HAL_RCCEx_PeriphCLKConfig+0x28>
 80029c6:	683b      	ldr	r3, [r7, #0]
 80029c8:	f443 7380 	orr.w	r3, r3, #256	; 0x100
 80029cc:	603b      	str	r3, [r7, #0]
 80029ce:	f7fe f999 	bl	8000d04 <HAL_GetTick>
 80029d2:	4680      	mov	r8, r0
 80029d4:	683b      	ldr	r3, [r7, #0]
 80029d6:	05d8      	lsls	r0, r3, #23
 80029d8:	d4ce      	bmi.n	8002978 <HAL_RCCEx_PeriphCLKConfig+0x30>
 80029da:	f7fe f993 	bl	8000d04 <HAL_GetTick>
 80029de:	eba0 0008 	sub.w	r0, r0, r8
 80029e2:	2864      	cmp	r0, #100	; 0x64
 80029e4:	d9f6      	bls.n	80029d4 <HAL_RCCEx_PeriphCLKConfig+0x8c>
 80029e6:	2003      	movs	r0, #3
 80029e8:	b002      	add	sp, #8
 80029ea:	e8bd 81f0 	ldmia.w	sp!, {r4, r5, r6, r7, r8, pc}
 80029ee:	686a      	ldr	r2, [r5, #4]
 80029f0:	f402 7240 	and.w	r2, r2, #768	; 0x300
 80029f4:	429a      	cmp	r2, r3
 80029f6:	d0c3      	beq.n	8002980 <HAL_RCCEx_PeriphCLKConfig+0x38>
 80029f8:	2001      	movs	r0, #1
 80029fa:	4a0f      	ldr	r2, [pc, #60]	; (8002a38 <HAL_RCCEx_PeriphCLKConfig+0xf0>)
 80029fc:	6a23      	ldr	r3, [r4, #32]
 80029fe:	f8c2 0440 	str.w	r0, [r2, #1088]	; 0x440
 8002a02:	2000      	movs	r0, #0
 8002a04:	f423 7140 	bic.w	r1, r3, #768	; 0x300
 8002a08:	f8c2 0440 	str.w	r0, [r2, #1088]	; 0x440
 8002a0c:	6221      	str	r1, [r4, #32]
 8002a0e:	07d9      	lsls	r1, r3, #31
 8002a10:	d5b6      	bpl.n	8002980 <HAL_RCCEx_PeriphCLKConfig+0x38>
 8002a12:	f7fe f977 	bl	8000d04 <HAL_GetTick>
 8002a16:	f241 3888 	movw	r8, #5000	; 0x1388
 8002a1a:	4607      	mov	r7, r0
 8002a1c:	6a23      	ldr	r3, [r4, #32]
 8002a1e:	079a      	lsls	r2, r3, #30
 8002a20:	d4ae      	bmi.n	8002980 <HAL_RCCEx_PeriphCLKConfig+0x38>
 8002a22:	f7fe f96f 	bl	8000d04 <HAL_GetTick>
 8002a26:	1bc0      	subs	r0, r0, r7
 8002a28:	4540      	cmp	r0, r8
 8002a2a:	d9f7      	bls.n	8002a1c <HAL_RCCEx_PeriphCLKConfig+0xd4>
 8002a2c:	e7db      	b.n	80029e6 <HAL_RCCEx_PeriphCLKConfig+0x9e>
 8002a2e:	bf00      	nop
 8002a30:	40021000 	.word	0x40021000
 8002a34:	40007000 	.word	0x40007000
 8002a38:	42420000 	.word	0x42420000

08002a3c <TIM_OC1_SetConfig>:
 8002a3c:	6a03      	ldr	r3, [r0, #32]
 8002a3e:	6a02      	ldr	r2, [r0, #32]
 8002a40:	b570      	push	{r4, r5, r6, lr}
 8002a42:	f022 0201 	bic.w	r2, r2, #1
 8002a46:	6202      	str	r2, [r0, #32]
 8002a48:	6844      	ldr	r4, [r0, #4]
 8002a4a:	6982      	ldr	r2, [r0, #24]
 8002a4c:	680d      	ldr	r5, [r1, #0]
 8002a4e:	f022 0273 	bic.w	r2, r2, #115	; 0x73
 8002a52:	432a      	orrs	r2, r5
 8002a54:	688d      	ldr	r5, [r1, #8]
 8002a56:	f023 0302 	bic.w	r3, r3, #2
 8002a5a:	432b      	orrs	r3, r5
 8002a5c:	4d0a      	ldr	r5, [pc, #40]	; (8002a88 <TIM_OC1_SetConfig+0x4c>)
 8002a5e:	42a8      	cmp	r0, r5
 8002a60:	d10b      	bne.n	8002a7a <TIM_OC1_SetConfig+0x3e>
 8002a62:	68cd      	ldr	r5, [r1, #12]
 8002a64:	f023 0308 	bic.w	r3, r3, #8
 8002a68:	432b      	orrs	r3, r5
 8002a6a:	f424 7440 	bic.w	r4, r4, #768	; 0x300
 8002a6e:	e9d1 5605 	ldrd	r5, r6, [r1, #20]
 8002a72:	4335      	orrs	r5, r6
 8002a74:	f023 0304 	bic.w	r3, r3, #4
 8002a78:	432c      	orrs	r4, r5
 8002a7a:	6044      	str	r4, [r0, #4]
 8002a7c:	6182      	str	r2, [r0, #24]
 8002a7e:	684a      	ldr	r2, [r1, #4]
 8002a80:	6342      	str	r2, [r0, #52]	; 0x34
 8002a82:	6203      	str	r3, [r0, #32]
 8002a84:	bd70      	pop	{r4, r5, r6, pc}
 8002a86:	bf00      	nop
 8002a88:	40012c00 	.word	0x40012c00

08002a8c <TIM_OC3_SetConfig>:
 8002a8c:	6a03      	ldr	r3, [r0, #32]
 8002a8e:	6a02      	ldr	r2, [r0, #32]
 8002a90:	b570      	push	{r4, r5, r6, lr}
 8002a92:	f422 7280 	bic.w	r2, r2, #256	; 0x100
 8002a96:	6202      	str	r2, [r0, #32]
 8002a98:	6844      	ldr	r4, [r0, #4]
 8002a9a:	69c2      	ldr	r2, [r0, #28]
 8002a9c:	680d      	ldr	r5, [r1, #0]
 8002a9e:	f022 0273 	bic.w	r2, r2, #115	; 0x73
 8002aa2:	432a      	orrs	r2, r5
 8002aa4:	688d      	ldr	r5, [r1, #8]
 8002aa6:	f423 7300 	bic.w	r3, r3, #512	; 0x200
 8002aaa:	ea43 2305 	orr.w	r3, r3, r5, lsl #8
 8002aae:	4d0b      	ldr	r5, [pc, #44]	; (8002adc <TIM_OC3_SetConfig+0x50>)
 8002ab0:	42a8      	cmp	r0, r5
 8002ab2:	d10d      	bne.n	8002ad0 <TIM_OC3_SetConfig+0x44>
 8002ab4:	68cd      	ldr	r5, [r1, #12]
 8002ab6:	f423 6300 	bic.w	r3, r3, #2048	; 0x800
 8002aba:	ea43 2305 	orr.w	r3, r3, r5, lsl #8
 8002abe:	f424 5440 	bic.w	r4, r4, #12288	; 0x3000
 8002ac2:	e9d1 5605 	ldrd	r5, r6, [r1, #20]
 8002ac6:	4335      	orrs	r5, r6
 8002ac8:	f423 6380 	bic.w	r3, r3, #1024	; 0x400
 8002acc:	ea44 1405 	orr.w	r4, r4, r5, lsl #4
 8002ad0:	6044      	str	r4, [r0, #4]
 8002ad2:	61c2      	str	r2, [r0, #28]
 8002ad4:	684a      	ldr	r2, [r1, #4]
 8002ad6:	63c2      	str	r2, [r0, #60]	; 0x3c
 8002ad8:	6203      	str	r3, [r0, #32]
 8002ada:	bd70      	pop	{r4, r5, r6, pc}
 8002adc:	40012c00 	.word	0x40012c00

08002ae0 <TIM_OC4_SetConfig>:
 8002ae0:	6a03      	ldr	r3, [r0, #32]
 8002ae2:	6a02      	ldr	r2, [r0, #32]
 8002ae4:	b530      	push	{r4, r5, lr}
 8002ae6:	f422 5280 	bic.w	r2, r2, #4096	; 0x1000
 8002aea:	6202      	str	r2, [r0, #32]
 8002aec:	6844      	ldr	r4, [r0, #4]
 8002aee:	69c2      	ldr	r2, [r0, #28]
 8002af0:	680d      	ldr	r5, [r1, #0]
 8002af2:	f422 42e6 	bic.w	r2, r2, #29440	; 0x7300
 8002af6:	ea42 2205 	orr.w	r2, r2, r5, lsl #8
 8002afa:	688d      	ldr	r5, [r1, #8]
 8002afc:	f423 5300 	bic.w	r3, r3, #8192	; 0x2000
 8002b00:	ea43 3305 	orr.w	r3, r3, r5, lsl #12
 8002b04:	4d06      	ldr	r5, [pc, #24]	; (8002b20 <TIM_OC4_SetConfig+0x40>)
 8002b06:	42a8      	cmp	r0, r5
 8002b08:	bf02      	ittt	eq
 8002b0a:	694d      	ldreq	r5, [r1, #20]
 8002b0c:	f424 4480 	biceq.w	r4, r4, #16384	; 0x4000
 8002b10:	ea44 1485 	orreq.w	r4, r4, r5, lsl #6
 8002b14:	6044      	str	r4, [r0, #4]
 8002b16:	61c2      	str	r2, [r0, #28]
 8002b18:	684a      	ldr	r2, [r1, #4]
 8002b1a:	6402      	str	r2, [r0, #64]	; 0x40
 8002b1c:	6203      	str	r3, [r0, #32]
 8002b1e:	bd30      	pop	{r4, r5, pc}
 8002b20:	40012c00 	.word	0x40012c00

08002b24 <HAL_TIM_PWM_MspInit>:
 8002b24:	4770      	bx	lr

08002b26 <TIM_DMADelayPulseCplt>:
 8002b26:	b510      	push	{r4, lr}
 8002b28:	6a44      	ldr	r4, [r0, #36]	; 0x24
 8002b2a:	6a62      	ldr	r2, [r4, #36]	; 0x24
 8002b2c:	4282      	cmp	r2, r0
 8002b2e:	d10b      	bne.n	8002b48 <TIM_DMADelayPulseCplt+0x22>
 8002b30:	2301      	movs	r3, #1
 8002b32:	7723      	strb	r3, [r4, #28]
 8002b34:	6992      	ldr	r2, [r2, #24]
 8002b36:	b90a      	cbnz	r2, 8002b3c <TIM_DMADelayPulseCplt+0x16>
 8002b38:	f884 303e 	strb.w	r3, [r4, #62]	; 0x3e
 8002b3c:	4620      	mov	r0, r4
 8002b3e:	f7fd fc11 	bl	8000364 <HAL_TIM_PWM_PulseFinishedCallback>
 8002b42:	2300      	movs	r3, #0
 8002b44:	7723      	strb	r3, [r4, #28]
 8002b46:	bd10      	pop	{r4, pc}
 8002b48:	6aa3      	ldr	r3, [r4, #40]	; 0x28
 8002b4a:	4283      	cmp	r3, r0
 8002b4c:	d108      	bne.n	8002b60 <TIM_DMADelayPulseCplt+0x3a>
 8002b4e:	2202      	movs	r2, #2
 8002b50:	7722      	strb	r2, [r4, #28]
 8002b52:	699b      	ldr	r3, [r3, #24]
 8002b54:	2b00      	cmp	r3, #0
 8002b56:	d1f1      	bne.n	8002b3c <TIM_DMADelayPulseCplt+0x16>
 8002b58:	2301      	movs	r3, #1
 8002b5a:	f884 303f 	strb.w	r3, [r4, #63]	; 0x3f
 8002b5e:	e7ed      	b.n	8002b3c <TIM_DMADelayPulseCplt+0x16>
 8002b60:	6ae3      	ldr	r3, [r4, #44]	; 0x2c
 8002b62:	4283      	cmp	r3, r0
 8002b64:	d108      	bne.n	8002b78 <TIM_DMADelayPulseCplt+0x52>
 8002b66:	2204      	movs	r2, #4
 8002b68:	7722      	strb	r2, [r4, #28]
 8002b6a:	699b      	ldr	r3, [r3, #24]
 8002b6c:	2b00      	cmp	r3, #0
 8002b6e:	d1e5      	bne.n	8002b3c <TIM_DMADelayPulseCplt+0x16>
 8002b70:	2301      	movs	r3, #1
 8002b72:	f884 3040 	strb.w	r3, [r4, #64]	; 0x40
 8002b76:	e7e1      	b.n	8002b3c <TIM_DMADelayPulseCplt+0x16>
 8002b78:	6b23      	ldr	r3, [r4, #48]	; 0x30
 8002b7a:	4283      	cmp	r3, r0
 8002b7c:	d1de      	bne.n	8002b3c <TIM_DMADelayPulseCplt+0x16>
 8002b7e:	2208      	movs	r2, #8
 8002b80:	7722      	strb	r2, [r4, #28]
 8002b82:	699b      	ldr	r3, [r3, #24]
 8002b84:	2b00      	cmp	r3, #0
 8002b86:	d1d9      	bne.n	8002b3c <TIM_DMADelayPulseCplt+0x16>
 8002b88:	2301      	movs	r3, #1
 8002b8a:	f884 3041 	strb.w	r3, [r4, #65]	; 0x41
 8002b8e:	e7d5      	b.n	8002b3c <TIM_DMADelayPulseCplt+0x16>

08002b90 <TIM_DMADelayPulseHalfCplt>:
 8002b90:	b510      	push	{r4, lr}
 8002b92:	6a44      	ldr	r4, [r0, #36]	; 0x24
 8002b94:	6a63      	ldr	r3, [r4, #36]	; 0x24
 8002b96:	4283      	cmp	r3, r0
 8002b98:	d107      	bne.n	8002baa <TIM_DMADelayPulseHalfCplt+0x1a>
 8002b9a:	2301      	movs	r3, #1
 8002b9c:	7723      	strb	r3, [r4, #28]
 8002b9e:	4620      	mov	r0, r4
 8002ba0:	f7fd fc2c 	bl	80003fc <HAL_TIM_PWM_PulseFinishedHalfCpltCallback>
 8002ba4:	2300      	movs	r3, #0
 8002ba6:	7723      	strb	r3, [r4, #28]
 8002ba8:	bd10      	pop	{r4, pc}
 8002baa:	6aa3      	ldr	r3, [r4, #40]	; 0x28
 8002bac:	4283      	cmp	r3, r0
 8002bae:	d101      	bne.n	8002bb4 <TIM_DMADelayPulseHalfCplt+0x24>
 8002bb0:	2302      	movs	r3, #2
 8002bb2:	e7f3      	b.n	8002b9c <TIM_DMADelayPulseHalfCplt+0xc>
 8002bb4:	6ae3      	ldr	r3, [r4, #44]	; 0x2c
 8002bb6:	4283      	cmp	r3, r0
 8002bb8:	d101      	bne.n	8002bbe <TIM_DMADelayPulseHalfCplt+0x2e>
 8002bba:	2304      	movs	r3, #4
 8002bbc:	e7ee      	b.n	8002b9c <TIM_DMADelayPulseHalfCplt+0xc>
 8002bbe:	6b23      	ldr	r3, [r4, #48]	; 0x30
 8002bc0:	4283      	cmp	r3, r0
 8002bc2:	d1ec      	bne.n	8002b9e <TIM_DMADelayPulseHalfCplt+0xe>
 8002bc4:	2308      	movs	r3, #8
 8002bc6:	e7e9      	b.n	8002b9c <TIM_DMADelayPulseHalfCplt+0xc>

08002bc8 <HAL_TIM_ErrorCallback>:
 8002bc8:	4770      	bx	lr

08002bca <TIM_DMAError>:
 8002bca:	b510      	push	{r4, lr}
 8002bcc:	6a44      	ldr	r4, [r0, #36]	; 0x24
 8002bce:	6a63      	ldr	r3, [r4, #36]	; 0x24
 8002bd0:	4283      	cmp	r3, r0
 8002bd2:	d109      	bne.n	8002be8 <TIM_DMAError+0x1e>
 8002bd4:	2301      	movs	r3, #1
 8002bd6:	7723      	strb	r3, [r4, #28]
 8002bd8:	f884 303e 	strb.w	r3, [r4, #62]	; 0x3e
 8002bdc:	4620      	mov	r0, r4
 8002bde:	f7ff fff3 	bl	8002bc8 <HAL_TIM_ErrorCallback>
 8002be2:	2300      	movs	r3, #0
 8002be4:	7723      	strb	r3, [r4, #28]
 8002be6:	bd10      	pop	{r4, pc}
 8002be8:	6aa3      	ldr	r3, [r4, #40]	; 0x28
 8002bea:	4283      	cmp	r3, r0
 8002bec:	d105      	bne.n	8002bfa <TIM_DMAError+0x30>
 8002bee:	2302      	movs	r3, #2
 8002bf0:	7723      	strb	r3, [r4, #28]
 8002bf2:	2301      	movs	r3, #1
 8002bf4:	f884 303f 	strb.w	r3, [r4, #63]	; 0x3f
 8002bf8:	e7f0      	b.n	8002bdc <TIM_DMAError+0x12>
 8002bfa:	6ae3      	ldr	r3, [r4, #44]	; 0x2c
 8002bfc:	4283      	cmp	r3, r0
 8002bfe:	f04f 0301 	mov.w	r3, #1
 8002c02:	d104      	bne.n	8002c0e <TIM_DMAError+0x44>
 8002c04:	2204      	movs	r2, #4
 8002c06:	f884 3040 	strb.w	r3, [r4, #64]	; 0x40
 8002c0a:	7722      	strb	r2, [r4, #28]
 8002c0c:	e7e6      	b.n	8002bdc <TIM_DMAError+0x12>
 8002c0e:	6b22      	ldr	r2, [r4, #48]	; 0x30
 8002c10:	4282      	cmp	r2, r0
 8002c12:	bf03      	ittte	eq
 8002c14:	2208      	moveq	r2, #8
 8002c16:	f884 3041 	strbeq.w	r3, [r4, #65]	; 0x41
 8002c1a:	7722      	strbeq	r2, [r4, #28]
 8002c1c:	f884 303d 	strbne.w	r3, [r4, #61]	; 0x3d
 8002c20:	e7dc      	b.n	8002bdc <TIM_DMAError+0x12>
	...

08002c24 <TIM_Base_SetConfig>:
 8002c24:	4a16      	ldr	r2, [pc, #88]	; (8002c80 <TIM_Base_SetConfig+0x5c>)
 8002c26:	b510      	push	{r4, lr}
 8002c28:	4290      	cmp	r0, r2
 8002c2a:	6803      	ldr	r3, [r0, #0]
 8002c2c:	d005      	beq.n	8002c3a <TIM_Base_SetConfig+0x16>
 8002c2e:	f1b0 4f80 	cmp.w	r0, #1073741824	; 0x40000000
 8002c32:	d002      	beq.n	8002c3a <TIM_Base_SetConfig+0x16>
 8002c34:	4c13      	ldr	r4, [pc, #76]	; (8002c84 <TIM_Base_SetConfig+0x60>)
 8002c36:	42a0      	cmp	r0, r4
 8002c38:	d110      	bne.n	8002c5c <TIM_Base_SetConfig+0x38>
 8002c3a:	684c      	ldr	r4, [r1, #4]
 8002c3c:	f023 0370 	bic.w	r3, r3, #112	; 0x70
 8002c40:	4290      	cmp	r0, r2
 8002c42:	ea43 0304 	orr.w	r3, r3, r4
 8002c46:	d005      	beq.n	8002c54 <TIM_Base_SetConfig+0x30>
 8002c48:	f1b0 4f80 	cmp.w	r0, #1073741824	; 0x40000000
 8002c4c:	d002      	beq.n	8002c54 <TIM_Base_SetConfig+0x30>
 8002c4e:	4a0d      	ldr	r2, [pc, #52]	; (8002c84 <TIM_Base_SetConfig+0x60>)
 8002c50:	4290      	cmp	r0, r2
 8002c52:	d103      	bne.n	8002c5c <TIM_Base_SetConfig+0x38>
 8002c54:	68ca      	ldr	r2, [r1, #12]
 8002c56:	f423 7340 	bic.w	r3, r3, #768	; 0x300
 8002c5a:	4313      	orrs	r3, r2
 8002c5c:	694a      	ldr	r2, [r1, #20]
 8002c5e:	f023 0380 	bic.w	r3, r3, #128	; 0x80
 8002c62:	4313      	orrs	r3, r2
 8002c64:	6003      	str	r3, [r0, #0]
 8002c66:	688b      	ldr	r3, [r1, #8]
 8002c68:	62c3      	str	r3, [r0, #44]	; 0x2c
 8002c6a:	680b      	ldr	r3, [r1, #0]
 8002c6c:	6283      	str	r3, [r0, #40]	; 0x28
 8002c6e:	4b04      	ldr	r3, [pc, #16]	; (8002c80 <TIM_Base_SetConfig+0x5c>)
 8002c70:	4298      	cmp	r0, r3
 8002c72:	bf04      	itt	eq
 8002c74:	690b      	ldreq	r3, [r1, #16]
 8002c76:	6303      	streq	r3, [r0, #48]	; 0x30
 8002c78:	2301      	movs	r3, #1
 8002c7a:	6143      	str	r3, [r0, #20]
 8002c7c:	bd10      	pop	{r4, pc}
 8002c7e:	bf00      	nop
 8002c80:	40012c00 	.word	0x40012c00
 8002c84:	40000400 	.word	0x40000400

08002c88 <HAL_TIM_Base_Init>:
 8002c88:	b510      	push	{r4, lr}
 8002c8a:	4604      	mov	r4, r0
 8002c8c:	b330      	cbz	r0, 8002cdc <HAL_TIM_Base_Init+0x54>
 8002c8e:	f890 303d 	ldrb.w	r3, [r0, #61]	; 0x3d
 8002c92:	f003 02ff 	and.w	r2, r3, #255	; 0xff
 8002c96:	b91b      	cbnz	r3, 8002ca0 <HAL_TIM_Base_Init+0x18>
 8002c98:	f880 203c 	strb.w	r2, [r0, #60]	; 0x3c
 8002c9c:	f7fd ff06 	bl	8000aac <HAL_TIM_Base_MspInit>
 8002ca0:	2302      	movs	r3, #2
 8002ca2:	6820      	ldr	r0, [r4, #0]
 8002ca4:	f884 303d 	strb.w	r3, [r4, #61]	; 0x3d
 8002ca8:	1d21      	adds	r1, r4, #4
 8002caa:	f7ff ffbb 	bl	8002c24 <TIM_Base_SetConfig>
 8002cae:	2301      	movs	r3, #1
 8002cb0:	2000      	movs	r0, #0
 8002cb2:	f884 3046 	strb.w	r3, [r4, #70]	; 0x46
 8002cb6:	f884 303e 	strb.w	r3, [r4, #62]	; 0x3e
 8002cba:	f884 303f 	strb.w	r3, [r4, #63]	; 0x3f
 8002cbe:	f884 3040 	strb.w	r3, [r4, #64]	; 0x40
 8002cc2:	f884 3041 	strb.w	r3, [r4, #65]	; 0x41
 8002cc6:	f884 3042 	strb.w	r3, [r4, #66]	; 0x42
 8002cca:	f884 3043 	strb.w	r3, [r4, #67]	; 0x43
 8002cce:	f884 3044 	strb.w	r3, [r4, #68]	; 0x44
 8002cd2:	f884 3045 	strb.w	r3, [r4, #69]	; 0x45
 8002cd6:	f884 303d 	strb.w	r3, [r4, #61]	; 0x3d
 8002cda:	bd10      	pop	{r4, pc}
 8002cdc:	2001      	movs	r0, #1
 8002cde:	e7fc      	b.n	8002cda <HAL_TIM_Base_Init+0x52>

08002ce0 <HAL_TIM_PWM_Init>:
 8002ce0:	b510      	push	{r4, lr}
 8002ce2:	4604      	mov	r4, r0
 8002ce4:	b330      	cbz	r0, 8002d34 <HAL_TIM_PWM_Init+0x54>
 8002ce6:	f890 303d 	ldrb.w	r3, [r0, #61]	; 0x3d
 8002cea:	f003 02ff 	and.w	r2, r3, #255	; 0xff
 8002cee:	b91b      	cbnz	r3, 8002cf8 <HAL_TIM_PWM_Init+0x18>
 8002cf0:	f880 203c 	strb.w	r2, [r0, #60]	; 0x3c
 8002cf4:	f7ff ff16 	bl	8002b24 <HAL_TIM_PWM_MspInit>
 8002cf8:	2302      	movs	r3, #2
 8002cfa:	6820      	ldr	r0, [r4, #0]
 8002cfc:	f884 303d 	strb.w	r3, [r4, #61]	; 0x3d
 8002d00:	1d21      	adds	r1, r4, #4
 8002d02:	f7ff ff8f 	bl	8002c24 <TIM_Base_SetConfig>
 8002d06:	2301      	movs	r3, #1
 8002d08:	2000      	movs	r0, #0
 8002d0a:	f884 3046 	strb.w	r3, [r4, #70]	; 0x46
 8002d0e:	f884 303e 	strb.w	r3, [r4, #62]	; 0x3e
 8002d12:	f884 303f 	strb.w	r3, [r4, #63]	; 0x3f
 8002d16:	f884 3040 	strb.w	r3, [r4, #64]	; 0x40
 8002d1a:	f884 3041 	strb.w	r3, [r4, #65]	; 0x41
 8002d1e:	f884 3042 	strb.w	r3, [r4, #66]	; 0x42
 8002d22:	f884 3043 	strb.w	r3, [r4, #67]	; 0x43
 8002d26:	f884 3044 	strb.w	r3, [r4, #68]	; 0x44
 8002d2a:	f884 3045 	strb.w	r3, [r4, #69]	; 0x45
 8002d2e:	f884 303d 	strb.w	r3, [r4, #61]	; 0x3d
 8002d32:	bd10      	pop	{r4, pc}
 8002d34:	2001      	movs	r0, #1
 8002d36:	e7fc      	b.n	8002d32 <HAL_TIM_PWM_Init+0x52>

08002d38 <TIM_OC2_SetConfig>:
 8002d38:	6a03      	ldr	r3, [r0, #32]
 8002d3a:	6a02      	ldr	r2, [r0, #32]
 8002d3c:	b570      	push	{r4, r5, r6, lr}
 8002d3e:	f022 0210 	bic.w	r2, r2, #16
 8002d42:	6202      	str	r2, [r0, #32]
 8002d44:	6844      	ldr	r4, [r0, #4]
 8002d46:	6982      	ldr	r2, [r0, #24]
 8002d48:	680d      	ldr	r5, [r1, #0]
 8002d4a:	f422 42e6 	bic.w	r2, r2, #29440	; 0x7300
 8002d4e:	ea42 2205 	orr.w	r2, r2, r5, lsl #8
 8002d52:	688d      	ldr	r5, [r1, #8]
 8002d54:	f023 0320 	bic.w	r3, r3, #32
 8002d58:	ea43 1305 	orr.w	r3, r3, r5, lsl #4
 8002d5c:	4d0b      	ldr	r5, [pc, #44]	; (8002d8c <TIM_OC2_SetConfig+0x54>)
 8002d5e:	42a8      	cmp	r0, r5
 8002d60:	d10d      	bne.n	8002d7e <TIM_OC2_SetConfig+0x46>
 8002d62:	68cd      	ldr	r5, [r1, #12]
 8002d64:	f023 0380 	bic.w	r3, r3, #128	; 0x80
 8002d68:	ea43 1305 	orr.w	r3, r3, r5, lsl #4
 8002d6c:	f424 6440 	bic.w	r4, r4, #3072	; 0xc00
 8002d70:	e9d1 5605 	ldrd	r5, r6, [r1, #20]
 8002d74:	4335      	orrs	r5, r6
 8002d76:	f023 0340 	bic.w	r3, r3, #64	; 0x40
 8002d7a:	ea44 0485 	orr.w	r4, r4, r5, lsl #2
 8002d7e:	6044      	str	r4, [r0, #4]
 8002d80:	6182      	str	r2, [r0, #24]
 8002d82:	684a      	ldr	r2, [r1, #4]
 8002d84:	6382      	str	r2, [r0, #56]	; 0x38
 8002d86:	6203      	str	r3, [r0, #32]
 8002d88:	bd70      	pop	{r4, r5, r6, pc}
 8002d8a:	bf00      	nop
 8002d8c:	40012c00 	.word	0x40012c00

08002d90 <HAL_TIM_PWM_ConfigChannel>:
 8002d90:	b570      	push	{r4, r5, r6, lr}
 8002d92:	f890 303c 	ldrb.w	r3, [r0, #60]	; 0x3c
 8002d96:	4605      	mov	r5, r0
 8002d98:	2b01      	cmp	r3, #1
 8002d9a:	d053      	beq.n	8002e44 <HAL_TIM_PWM_ConfigChannel+0xb4>
 8002d9c:	2001      	movs	r0, #1
 8002d9e:	2a08      	cmp	r2, #8
 8002da0:	f885 003c 	strb.w	r0, [r5, #60]	; 0x3c
 8002da4:	d03d      	beq.n	8002e22 <HAL_TIM_PWM_ConfigChannel+0x92>
 8002da6:	d806      	bhi.n	8002db6 <HAL_TIM_PWM_ConfigChannel+0x26>
 8002da8:	b1c2      	cbz	r2, 8002ddc <HAL_TIM_PWM_ConfigChannel+0x4c>
 8002daa:	2a04      	cmp	r2, #4
 8002dac:	d028      	beq.n	8002e00 <HAL_TIM_PWM_ConfigChannel+0x70>
 8002dae:	2300      	movs	r3, #0
 8002db0:	f885 303c 	strb.w	r3, [r5, #60]	; 0x3c
 8002db4:	bd70      	pop	{r4, r5, r6, pc}
 8002db6:	2a0c      	cmp	r2, #12
 8002db8:	d1f9      	bne.n	8002dae <HAL_TIM_PWM_ConfigChannel+0x1e>
 8002dba:	6828      	ldr	r0, [r5, #0]
 8002dbc:	f7ff fe90 	bl	8002ae0 <TIM_OC4_SetConfig>
 8002dc0:	682b      	ldr	r3, [r5, #0]
 8002dc2:	6909      	ldr	r1, [r1, #16]
 8002dc4:	69da      	ldr	r2, [r3, #28]
 8002dc6:	f442 6200 	orr.w	r2, r2, #2048	; 0x800
 8002dca:	61da      	str	r2, [r3, #28]
 8002dcc:	69da      	ldr	r2, [r3, #28]
 8002dce:	f422 6280 	bic.w	r2, r2, #1024	; 0x400
 8002dd2:	61da      	str	r2, [r3, #28]
 8002dd4:	69da      	ldr	r2, [r3, #28]
 8002dd6:	ea42 2201 	orr.w	r2, r2, r1, lsl #8
 8002dda:	e031      	b.n	8002e40 <HAL_TIM_PWM_ConfigChannel+0xb0>
 8002ddc:	6828      	ldr	r0, [r5, #0]
 8002dde:	f7ff fe2d 	bl	8002a3c <TIM_OC1_SetConfig>
 8002de2:	682b      	ldr	r3, [r5, #0]
 8002de4:	6909      	ldr	r1, [r1, #16]
 8002de6:	699a      	ldr	r2, [r3, #24]
 8002de8:	f042 0208 	orr.w	r2, r2, #8
 8002dec:	619a      	str	r2, [r3, #24]
 8002dee:	699a      	ldr	r2, [r3, #24]
 8002df0:	f022 0204 	bic.w	r2, r2, #4
 8002df4:	619a      	str	r2, [r3, #24]
 8002df6:	699a      	ldr	r2, [r3, #24]
 8002df8:	430a      	orrs	r2, r1
 8002dfa:	619a      	str	r2, [r3, #24]
 8002dfc:	2000      	movs	r0, #0
 8002dfe:	e7d6      	b.n	8002dae <HAL_TIM_PWM_ConfigChannel+0x1e>
 8002e00:	6828      	ldr	r0, [r5, #0]
 8002e02:	f7ff ff99 	bl	8002d38 <TIM_OC2_SetConfig>
 8002e06:	682b      	ldr	r3, [r5, #0]
 8002e08:	6909      	ldr	r1, [r1, #16]
 8002e0a:	699a      	ldr	r2, [r3, #24]
 8002e0c:	f442 6200 	orr.w	r2, r2, #2048	; 0x800
 8002e10:	619a      	str	r2, [r3, #24]
 8002e12:	699a      	ldr	r2, [r3, #24]
 8002e14:	f422 6280 	bic.w	r2, r2, #1024	; 0x400
 8002e18:	619a      	str	r2, [r3, #24]
 8002e1a:	699a      	ldr	r2, [r3, #24]
 8002e1c:	ea42 2201 	orr.w	r2, r2, r1, lsl #8
 8002e20:	e7eb      	b.n	8002dfa <HAL_TIM_PWM_ConfigChannel+0x6a>
 8002e22:	6828      	ldr	r0, [r5, #0]
 8002e24:	f7ff fe32 	bl	8002a8c <TIM_OC3_SetConfig>
 8002e28:	682b      	ldr	r3, [r5, #0]
 8002e2a:	6909      	ldr	r1, [r1, #16]
 8002e2c:	69da      	ldr	r2, [r3, #28]
 8002e2e:	f042 0208 	orr.w	r2, r2, #8
 8002e32:	61da      	str	r2, [r3, #28]
 8002e34:	69da      	ldr	r2, [r3, #28]
 8002e36:	f022 0204 	bic.w	r2, r2, #4
 8002e3a:	61da      	str	r2, [r3, #28]
 8002e3c:	69da      	ldr	r2, [r3, #28]
 8002e3e:	430a      	orrs	r2, r1
 8002e40:	61da      	str	r2, [r3, #28]
 8002e42:	e7db      	b.n	8002dfc <HAL_TIM_PWM_ConfigChannel+0x6c>
 8002e44:	2002      	movs	r0, #2
 8002e46:	e7b5      	b.n	8002db4 <HAL_TIM_PWM_ConfigChannel+0x24>

08002e48 <TIM_ETR_SetConfig>:
 8002e48:	b510      	push	{r4, lr}
 8002e4a:	6884      	ldr	r4, [r0, #8]
 8002e4c:	430a      	orrs	r2, r1
 8002e4e:	f424 447f 	bic.w	r4, r4, #65280	; 0xff00
 8002e52:	ea42 2203 	orr.w	r2, r2, r3, lsl #8
 8002e56:	4322      	orrs	r2, r4
 8002e58:	6082      	str	r2, [r0, #8]
 8002e5a:	bd10      	pop	{r4, pc}

08002e5c <HAL_TIM_ConfigClockSource>:
 8002e5c:	b570      	push	{r4, r5, r6, lr}
 8002e5e:	f890 303c 	ldrb.w	r3, [r0, #60]	; 0x3c
 8002e62:	4604      	mov	r4, r0
 8002e64:	2b01      	cmp	r3, #1
 8002e66:	f04f 0302 	mov.w	r3, #2
 8002e6a:	f000 8091 	beq.w	8002f90 <HAL_TIM_ConfigClockSource+0x134>
 8002e6e:	2201      	movs	r2, #1
 8002e70:	f880 303d 	strb.w	r3, [r0, #61]	; 0x3d
 8002e74:	f880 203c 	strb.w	r2, [r0, #60]	; 0x3c
 8002e78:	6800      	ldr	r0, [r0, #0]
 8002e7a:	6883      	ldr	r3, [r0, #8]
 8002e7c:	f423 437f 	bic.w	r3, r3, #65280	; 0xff00
 8002e80:	f023 0377 	bic.w	r3, r3, #119	; 0x77
 8002e84:	6083      	str	r3, [r0, #8]
 8002e86:	680b      	ldr	r3, [r1, #0]
 8002e88:	2b60      	cmp	r3, #96	; 0x60
 8002e8a:	d052      	beq.n	8002f32 <HAL_TIM_ConfigClockSource+0xd6>
 8002e8c:	d833      	bhi.n	8002ef6 <HAL_TIM_ConfigClockSource+0x9a>
 8002e8e:	2b40      	cmp	r3, #64	; 0x40
 8002e90:	d067      	beq.n	8002f62 <HAL_TIM_ConfigClockSource+0x106>
 8002e92:	d816      	bhi.n	8002ec2 <HAL_TIM_ConfigClockSource+0x66>
 8002e94:	2b20      	cmp	r3, #32
 8002e96:	d00d      	beq.n	8002eb4 <HAL_TIM_ConfigClockSource+0x58>
 8002e98:	d80a      	bhi.n	8002eb0 <HAL_TIM_ConfigClockSource+0x54>
 8002e9a:	f033 0110 	bics.w	r1, r3, #16
 8002e9e:	d009      	beq.n	8002eb4 <HAL_TIM_ConfigClockSource+0x58>
 8002ea0:	2301      	movs	r3, #1
 8002ea2:	f884 303d 	strb.w	r3, [r4, #61]	; 0x3d
 8002ea6:	2300      	movs	r3, #0
 8002ea8:	f884 303c 	strb.w	r3, [r4, #60]	; 0x3c
 8002eac:	4610      	mov	r0, r2
 8002eae:	bd70      	pop	{r4, r5, r6, pc}
 8002eb0:	2b30      	cmp	r3, #48	; 0x30
 8002eb2:	d1f5      	bne.n	8002ea0 <HAL_TIM_ConfigClockSource+0x44>
 8002eb4:	6882      	ldr	r2, [r0, #8]
 8002eb6:	f022 0270 	bic.w	r2, r2, #112	; 0x70
 8002eba:	4313      	orrs	r3, r2
 8002ebc:	f043 0307 	orr.w	r3, r3, #7
 8002ec0:	e017      	b.n	8002ef2 <HAL_TIM_ConfigClockSource+0x96>
 8002ec2:	2b50      	cmp	r3, #80	; 0x50
 8002ec4:	d1ec      	bne.n	8002ea0 <HAL_TIM_ConfigClockSource+0x44>
 8002ec6:	684a      	ldr	r2, [r1, #4]
 8002ec8:	68ce      	ldr	r6, [r1, #12]
 8002eca:	6a01      	ldr	r1, [r0, #32]
 8002ecc:	6a05      	ldr	r5, [r0, #32]
 8002ece:	f021 010a 	bic.w	r1, r1, #10
 8002ed2:	f025 0501 	bic.w	r5, r5, #1
 8002ed6:	6205      	str	r5, [r0, #32]
 8002ed8:	6983      	ldr	r3, [r0, #24]
 8002eda:	430a      	orrs	r2, r1
 8002edc:	f023 03f0 	bic.w	r3, r3, #240	; 0xf0
 8002ee0:	ea43 1306 	orr.w	r3, r3, r6, lsl #4
 8002ee4:	6183      	str	r3, [r0, #24]
 8002ee6:	6202      	str	r2, [r0, #32]
 8002ee8:	6883      	ldr	r3, [r0, #8]
 8002eea:	f023 0370 	bic.w	r3, r3, #112	; 0x70
 8002eee:	f043 0357 	orr.w	r3, r3, #87	; 0x57
 8002ef2:	6083      	str	r3, [r0, #8]
 8002ef4:	e011      	b.n	8002f1a <HAL_TIM_ConfigClockSource+0xbe>
 8002ef6:	f5b3 5f80 	cmp.w	r3, #4096	; 0x1000
 8002efa:	d00e      	beq.n	8002f1a <HAL_TIM_ConfigClockSource+0xbe>
 8002efc:	f5b3 5f00 	cmp.w	r3, #8192	; 0x2000
 8002f00:	d00d      	beq.n	8002f1e <HAL_TIM_ConfigClockSource+0xc2>
 8002f02:	2b70      	cmp	r3, #112	; 0x70
 8002f04:	d1cc      	bne.n	8002ea0 <HAL_TIM_ConfigClockSource+0x44>
 8002f06:	68cb      	ldr	r3, [r1, #12]
 8002f08:	e9d1 2101 	ldrd	r2, r1, [r1, #4]
 8002f0c:	f7ff ff9c 	bl	8002e48 <TIM_ETR_SetConfig>
 8002f10:	6822      	ldr	r2, [r4, #0]
 8002f12:	6893      	ldr	r3, [r2, #8]
 8002f14:	f043 0377 	orr.w	r3, r3, #119	; 0x77
 8002f18:	6093      	str	r3, [r2, #8]
 8002f1a:	2200      	movs	r2, #0
 8002f1c:	e7c0      	b.n	8002ea0 <HAL_TIM_ConfigClockSource+0x44>
 8002f1e:	68cb      	ldr	r3, [r1, #12]
 8002f20:	e9d1 2101 	ldrd	r2, r1, [r1, #4]
 8002f24:	f7ff ff90 	bl	8002e48 <TIM_ETR_SetConfig>
 8002f28:	6822      	ldr	r2, [r4, #0]
 8002f2a:	6893      	ldr	r3, [r2, #8]
 8002f2c:	f443 4380 	orr.w	r3, r3, #16384	; 0x4000
 8002f30:	e7f2      	b.n	8002f18 <HAL_TIM_ConfigClockSource+0xbc>
 8002f32:	6a03      	ldr	r3, [r0, #32]
 8002f34:	684d      	ldr	r5, [r1, #4]
 8002f36:	68ce      	ldr	r6, [r1, #12]
 8002f38:	6a01      	ldr	r1, [r0, #32]
 8002f3a:	f023 03a0 	bic.w	r3, r3, #160	; 0xa0
 8002f3e:	f021 0110 	bic.w	r1, r1, #16
 8002f42:	6201      	str	r1, [r0, #32]
 8002f44:	6982      	ldr	r2, [r0, #24]
 8002f46:	ea43 1305 	orr.w	r3, r3, r5, lsl #4
 8002f4a:	f422 4270 	bic.w	r2, r2, #61440	; 0xf000
 8002f4e:	ea42 3206 	orr.w	r2, r2, r6, lsl #12
 8002f52:	6182      	str	r2, [r0, #24]
 8002f54:	6203      	str	r3, [r0, #32]
 8002f56:	6883      	ldr	r3, [r0, #8]
 8002f58:	f023 0370 	bic.w	r3, r3, #112	; 0x70
 8002f5c:	f043 0367 	orr.w	r3, r3, #103	; 0x67
 8002f60:	e7c7      	b.n	8002ef2 <HAL_TIM_ConfigClockSource+0x96>
 8002f62:	684a      	ldr	r2, [r1, #4]
 8002f64:	68ce      	ldr	r6, [r1, #12]
 8002f66:	6a01      	ldr	r1, [r0, #32]
 8002f68:	6a05      	ldr	r5, [r0, #32]
 8002f6a:	f021 010a 	bic.w	r1, r1, #10
 8002f6e:	f025 0501 	bic.w	r5, r5, #1
 8002f72:	6205      	str	r5, [r0, #32]
 8002f74:	6983      	ldr	r3, [r0, #24]
 8002f76:	430a      	orrs	r2, r1
 8002f78:	f023 03f0 	bic.w	r3, r3, #240	; 0xf0
 8002f7c:	ea43 1306 	orr.w	r3, r3, r6, lsl #4
 8002f80:	6183      	str	r3, [r0, #24]
 8002f82:	6202      	str	r2, [r0, #32]
 8002f84:	6883      	ldr	r3, [r0, #8]
 8002f86:	f023 0370 	bic.w	r3, r3, #112	; 0x70
 8002f8a:	f043 0347 	orr.w	r3, r3, #71	; 0x47
 8002f8e:	e7b0      	b.n	8002ef2 <HAL_TIM_ConfigClockSource+0x96>
 8002f90:	461a      	mov	r2, r3
 8002f92:	e78b      	b.n	8002eac <HAL_TIM_ConfigClockSource+0x50>

08002f94 <TIM_CCxChannelCmd>:
 8002f94:	b510      	push	{r4, lr}
 8002f96:	2401      	movs	r4, #1
 8002f98:	6a03      	ldr	r3, [r0, #32]
 8002f9a:	f001 011f 	and.w	r1, r1, #31
 8002f9e:	408c      	lsls	r4, r1
 8002fa0:	ea23 0304 	bic.w	r3, r3, r4
 8002fa4:	6203      	str	r3, [r0, #32]
 8002fa6:	6a03      	ldr	r3, [r0, #32]
 8002fa8:	408a      	lsls	r2, r1
 8002faa:	431a      	orrs	r2, r3
 8002fac:	6202      	str	r2, [r0, #32]
 8002fae:	bd10      	pop	{r4, pc}

08002fb0 <HAL_TIM_OC_Start_DMA>:
 8002fb0:	b538      	push	{r3, r4, r5, lr}
 8002fb2:	460d      	mov	r5, r1
 8002fb4:	4604      	mov	r4, r0
 8002fb6:	4611      	mov	r1, r2
 8002fb8:	b92d      	cbnz	r5, 8002fc6 <HAL_TIM_OC_Start_DMA+0x16>
 8002fba:	f890 203e 	ldrb.w	r2, [r0, #62]	; 0x3e
 8002fbe:	2a02      	cmp	r2, #2
 8002fc0:	b2d0      	uxtb	r0, r2
 8002fc2:	d114      	bne.n	8002fee <HAL_TIM_OC_Start_DMA+0x3e>
 8002fc4:	bd38      	pop	{r3, r4, r5, pc}
 8002fc6:	2d04      	cmp	r5, #4
 8002fc8:	d10a      	bne.n	8002fe0 <HAL_TIM_OC_Start_DMA+0x30>
 8002fca:	f890 003f 	ldrb.w	r0, [r0, #63]	; 0x3f
 8002fce:	f1a0 0c02 	sub.w	ip, r0, #2
 8002fd2:	f1dc 0000 	rsbs	r0, ip, #0
 8002fd6:	eb40 000c 	adc.w	r0, r0, ip
 8002fda:	b180      	cbz	r0, 8002ffe <HAL_TIM_OC_Start_DMA+0x4e>
 8002fdc:	2002      	movs	r0, #2
 8002fde:	e7f1      	b.n	8002fc4 <HAL_TIM_OC_Start_DMA+0x14>
 8002fe0:	2d08      	cmp	r5, #8
 8002fe2:	bf0c      	ite	eq
 8002fe4:	f890 0040 	ldrbeq.w	r0, [r0, #64]	; 0x40
 8002fe8:	f894 0041 	ldrbne.w	r0, [r4, #65]	; 0x41
 8002fec:	e7ef      	b.n	8002fce <HAL_TIM_OC_Start_DMA+0x1e>
 8002fee:	f894 203e 	ldrb.w	r2, [r4, #62]	; 0x3e
 8002ff2:	1e50      	subs	r0, r2, #1
 8002ff4:	4242      	negs	r2, r0
 8002ff6:	4142      	adcs	r2, r0
 8002ff8:	b962      	cbnz	r2, 8003014 <HAL_TIM_OC_Start_DMA+0x64>
 8002ffa:	2001      	movs	r0, #1
 8002ffc:	e7e2      	b.n	8002fc4 <HAL_TIM_OC_Start_DMA+0x14>
 8002ffe:	2d04      	cmp	r5, #4
 8003000:	d102      	bne.n	8003008 <HAL_TIM_OC_Start_DMA+0x58>
 8003002:	f894 203f 	ldrb.w	r2, [r4, #63]	; 0x3f
 8003006:	e7f4      	b.n	8002ff2 <HAL_TIM_OC_Start_DMA+0x42>
 8003008:	2d08      	cmp	r5, #8
 800300a:	d131      	bne.n	8003070 <HAL_TIM_OC_Start_DMA+0xc0>
 800300c:	f894 2040 	ldrb.w	r2, [r4, #64]	; 0x40
 8003010:	2a01      	cmp	r2, #1
 8003012:	d1f2      	bne.n	8002ffa <HAL_TIM_OC_Start_DMA+0x4a>
 8003014:	2900      	cmp	r1, #0
 8003016:	d0f0      	beq.n	8002ffa <HAL_TIM_OC_Start_DMA+0x4a>
 8003018:	2b00      	cmp	r3, #0
 800301a:	d0ee      	beq.n	8002ffa <HAL_TIM_OC_Start_DMA+0x4a>
 800301c:	2202      	movs	r2, #2
 800301e:	bb55      	cbnz	r5, 8003076 <HAL_TIM_OC_Start_DMA+0xc6>
 8003020:	f884 203e 	strb.w	r2, [r4, #62]	; 0x3e
 8003024:	6a60      	ldr	r0, [r4, #36]	; 0x24
 8003026:	4a3a      	ldr	r2, [pc, #232]	; (8003110 <HAL_TIM_OC_Start_DMA+0x160>)
 8003028:	6282      	str	r2, [r0, #40]	; 0x28
 800302a:	4a3a      	ldr	r2, [pc, #232]	; (8003114 <HAL_TIM_OC_Start_DMA+0x164>)
 800302c:	62c2      	str	r2, [r0, #44]	; 0x2c
 800302e:	4a3a      	ldr	r2, [pc, #232]	; (8003118 <HAL_TIM_OC_Start_DMA+0x168>)
 8003030:	6302      	str	r2, [r0, #48]	; 0x30
 8003032:	6822      	ldr	r2, [r4, #0]
 8003034:	3234      	adds	r2, #52	; 0x34
 8003036:	f7fe f9b1 	bl	800139c <HAL_DMA_Start_IT>
 800303a:	2800      	cmp	r0, #0
 800303c:	d1dd      	bne.n	8002ffa <HAL_TIM_OC_Start_DMA+0x4a>
 800303e:	6822      	ldr	r2, [r4, #0]
 8003040:	68d3      	ldr	r3, [r2, #12]
 8003042:	f443 7300 	orr.w	r3, r3, #512	; 0x200
 8003046:	60d3      	str	r3, [r2, #12]
 8003048:	4629      	mov	r1, r5
 800304a:	2201      	movs	r2, #1
 800304c:	6820      	ldr	r0, [r4, #0]
 800304e:	f7ff ffa1 	bl	8002f94 <TIM_CCxChannelCmd>
 8003052:	6823      	ldr	r3, [r4, #0]
 8003054:	4a31      	ldr	r2, [pc, #196]	; (800311c <HAL_TIM_OC_Start_DMA+0x16c>)
 8003056:	4293      	cmp	r3, r2
 8003058:	d14f      	bne.n	80030fa <HAL_TIM_OC_Start_DMA+0x14a>
 800305a:	6c5a      	ldr	r2, [r3, #68]	; 0x44
 800305c:	f442 4200 	orr.w	r2, r2, #32768	; 0x8000
 8003060:	645a      	str	r2, [r3, #68]	; 0x44
 8003062:	689a      	ldr	r2, [r3, #8]
 8003064:	f002 0207 	and.w	r2, r2, #7
 8003068:	2a06      	cmp	r2, #6
 800306a:	d14c      	bne.n	8003106 <HAL_TIM_OC_Start_DMA+0x156>
 800306c:	2000      	movs	r0, #0
 800306e:	e7a9      	b.n	8002fc4 <HAL_TIM_OC_Start_DMA+0x14>
 8003070:	f894 2041 	ldrb.w	r2, [r4, #65]	; 0x41
 8003074:	e7cc      	b.n	8003010 <HAL_TIM_OC_Start_DMA+0x60>
 8003076:	2d04      	cmp	r5, #4
 8003078:	d113      	bne.n	80030a2 <HAL_TIM_OC_Start_DMA+0xf2>
 800307a:	f884 203f 	strb.w	r2, [r4, #63]	; 0x3f
 800307e:	6aa0      	ldr	r0, [r4, #40]	; 0x28
 8003080:	4a23      	ldr	r2, [pc, #140]	; (8003110 <HAL_TIM_OC_Start_DMA+0x160>)
 8003082:	6282      	str	r2, [r0, #40]	; 0x28
 8003084:	4a23      	ldr	r2, [pc, #140]	; (8003114 <HAL_TIM_OC_Start_DMA+0x164>)
 8003086:	62c2      	str	r2, [r0, #44]	; 0x2c
 8003088:	4a23      	ldr	r2, [pc, #140]	; (8003118 <HAL_TIM_OC_Start_DMA+0x168>)
 800308a:	6302      	str	r2, [r0, #48]	; 0x30
 800308c:	6822      	ldr	r2, [r4, #0]
 800308e:	3238      	adds	r2, #56	; 0x38
 8003090:	f7fe f984 	bl	800139c <HAL_DMA_Start_IT>
 8003094:	2800      	cmp	r0, #0
 8003096:	d1b0      	bne.n	8002ffa <HAL_TIM_OC_Start_DMA+0x4a>
 8003098:	6822      	ldr	r2, [r4, #0]
 800309a:	68d3      	ldr	r3, [r2, #12]
 800309c:	f443 6380 	orr.w	r3, r3, #1024	; 0x400
 80030a0:	e7d1      	b.n	8003046 <HAL_TIM_OC_Start_DMA+0x96>
 80030a2:	2d08      	cmp	r5, #8
 80030a4:	d113      	bne.n	80030ce <HAL_TIM_OC_Start_DMA+0x11e>
 80030a6:	f884 2040 	strb.w	r2, [r4, #64]	; 0x40
 80030aa:	6ae0      	ldr	r0, [r4, #44]	; 0x2c
 80030ac:	4a18      	ldr	r2, [pc, #96]	; (8003110 <HAL_TIM_OC_Start_DMA+0x160>)
 80030ae:	6282      	str	r2, [r0, #40]	; 0x28
 80030b0:	4a18      	ldr	r2, [pc, #96]	; (8003114 <HAL_TIM_OC_Start_DMA+0x164>)
 80030b2:	62c2      	str	r2, [r0, #44]	; 0x2c
 80030b4:	4a18      	ldr	r2, [pc, #96]	; (8003118 <HAL_TIM_OC_Start_DMA+0x168>)
 80030b6:	6302      	str	r2, [r0, #48]	; 0x30
 80030b8:	6822      	ldr	r2, [r4, #0]
 80030ba:	323c      	adds	r2, #60	; 0x3c
 80030bc:	f7fe f96e 	bl	800139c <HAL_DMA_Start_IT>
 80030c0:	2800      	cmp	r0, #0
 80030c2:	d19a      	bne.n	8002ffa <HAL_TIM_OC_Start_DMA+0x4a>
 80030c4:	6822      	ldr	r2, [r4, #0]
 80030c6:	68d3      	ldr	r3, [r2, #12]
 80030c8:	f443 6300 	orr.w	r3, r3, #2048	; 0x800
 80030cc:	e7bb      	b.n	8003046 <HAL_TIM_OC_Start_DMA+0x96>
 80030ce:	2d0c      	cmp	r5, #12
 80030d0:	f884 2041 	strb.w	r2, [r4, #65]	; 0x41
 80030d4:	d191      	bne.n	8002ffa <HAL_TIM_OC_Start_DMA+0x4a>
 80030d6:	6b20      	ldr	r0, [r4, #48]	; 0x30
 80030d8:	4a0d      	ldr	r2, [pc, #52]	; (8003110 <HAL_TIM_OC_Start_DMA+0x160>)
 80030da:	6282      	str	r2, [r0, #40]	; 0x28
 80030dc:	4a0d      	ldr	r2, [pc, #52]	; (8003114 <HAL_TIM_OC_Start_DMA+0x164>)
 80030de:	62c2      	str	r2, [r0, #44]	; 0x2c
 80030e0:	4a0d      	ldr	r2, [pc, #52]	; (8003118 <HAL_TIM_OC_Start_DMA+0x168>)
 80030e2:	6302      	str	r2, [r0, #48]	; 0x30
 80030e4:	6822      	ldr	r2, [r4, #0]
 80030e6:	3240      	adds	r2, #64	; 0x40
 80030e8:	f7fe f958 	bl	800139c <HAL_DMA_Start_IT>
 80030ec:	2800      	cmp	r0, #0
 80030ee:	d184      	bne.n	8002ffa <HAL_TIM_OC_Start_DMA+0x4a>
 80030f0:	6822      	ldr	r2, [r4, #0]
 80030f2:	68d3      	ldr	r3, [r2, #12]
 80030f4:	f443 5380 	orr.w	r3, r3, #4096	; 0x1000
 80030f8:	e7a5      	b.n	8003046 <HAL_TIM_OC_Start_DMA+0x96>
 80030fa:	f1b3 4f80 	cmp.w	r3, #1073741824	; 0x40000000
 80030fe:	d0b0      	beq.n	8003062 <HAL_TIM_OC_Start_DMA+0xb2>
 8003100:	4a07      	ldr	r2, [pc, #28]	; (8003120 <HAL_TIM_OC_Start_DMA+0x170>)
 8003102:	4293      	cmp	r3, r2
 8003104:	d0ad      	beq.n	8003062 <HAL_TIM_OC_Start_DMA+0xb2>
 8003106:	681a      	ldr	r2, [r3, #0]
 8003108:	f042 0201 	orr.w	r2, r2, #1
 800310c:	601a      	str	r2, [r3, #0]
 800310e:	e7ad      	b.n	800306c <HAL_TIM_OC_Start_DMA+0xbc>
 8003110:	08002b27 	.word	0x08002b27
 8003114:	08002b91 	.word	0x08002b91
 8003118:	08002bcb 	.word	0x08002bcb
 800311c:	40012c00 	.word	0x40012c00
 8003120:	40000400 	.word	0x40000400

08003124 <HAL_TIM_PWM_Start_DMA>:
 8003124:	f7ff bf44 	b.w	8002fb0 <HAL_TIM_OC_Start_DMA>

08003128 <HAL_TIM_OC_Stop_DMA>:
 8003128:	2908      	cmp	r1, #8
 800312a:	b538      	push	{r3, r4, r5, lr}
 800312c:	4605      	mov	r5, r0
 800312e:	460c      	mov	r4, r1
 8003130:	d048      	beq.n	80031c4 <HAL_TIM_OC_Stop_DMA+0x9c>
 8003132:	d804      	bhi.n	800313e <HAL_TIM_OC_Stop_DMA+0x16>
 8003134:	b161      	cbz	r1, 8003150 <HAL_TIM_OC_Stop_DMA+0x28>
 8003136:	2904      	cmp	r1, #4
 8003138:	d03d      	beq.n	80031b6 <HAL_TIM_OC_Stop_DMA+0x8e>
 800313a:	2001      	movs	r0, #1
 800313c:	bd38      	pop	{r3, r4, r5, pc}
 800313e:	290c      	cmp	r1, #12
 8003140:	d1fb      	bne.n	800313a <HAL_TIM_OC_Stop_DMA+0x12>
 8003142:	6802      	ldr	r2, [r0, #0]
 8003144:	6b00      	ldr	r0, [r0, #48]	; 0x30
 8003146:	68d3      	ldr	r3, [r2, #12]
 8003148:	f423 5380 	bic.w	r3, r3, #4096	; 0x1000
 800314c:	60d3      	str	r3, [r2, #12]
 800314e:	e005      	b.n	800315c <HAL_TIM_OC_Stop_DMA+0x34>
 8003150:	6802      	ldr	r2, [r0, #0]
 8003152:	6a40      	ldr	r0, [r0, #36]	; 0x24
 8003154:	68d3      	ldr	r3, [r2, #12]
 8003156:	f423 7300 	bic.w	r3, r3, #512	; 0x200
 800315a:	60d3      	str	r3, [r2, #12]
 800315c:	f7fe f95a 	bl	8001414 <HAL_DMA_Abort_IT>
 8003160:	2200      	movs	r2, #0
 8003162:	4621      	mov	r1, r4
 8003164:	6828      	ldr	r0, [r5, #0]
 8003166:	f7ff ff15 	bl	8002f94 <TIM_CCxChannelCmd>
 800316a:	682b      	ldr	r3, [r5, #0]
 800316c:	4a1f      	ldr	r2, [pc, #124]	; (80031ec <HAL_TIM_OC_Stop_DMA+0xc4>)
 800316e:	4293      	cmp	r3, r2
 8003170:	d10d      	bne.n	800318e <HAL_TIM_OC_Stop_DMA+0x66>
 8003172:	f241 1211 	movw	r2, #4369	; 0x1111
 8003176:	6a19      	ldr	r1, [r3, #32]
 8003178:	4211      	tst	r1, r2
 800317a:	d108      	bne.n	800318e <HAL_TIM_OC_Stop_DMA+0x66>
 800317c:	f240 4244 	movw	r2, #1092	; 0x444
 8003180:	6a19      	ldr	r1, [r3, #32]
 8003182:	4211      	tst	r1, r2
 8003184:	bf02      	ittt	eq
 8003186:	6c5a      	ldreq	r2, [r3, #68]	; 0x44
 8003188:	f422 4200 	biceq.w	r2, r2, #32768	; 0x8000
 800318c:	645a      	streq	r2, [r3, #68]	; 0x44
 800318e:	f241 1211 	movw	r2, #4369	; 0x1111
 8003192:	6a19      	ldr	r1, [r3, #32]
 8003194:	4211      	tst	r1, r2
 8003196:	d108      	bne.n	80031aa <HAL_TIM_OC_Stop_DMA+0x82>
 8003198:	f240 4244 	movw	r2, #1092	; 0x444
 800319c:	6a19      	ldr	r1, [r3, #32]
 800319e:	4211      	tst	r1, r2
 80031a0:	bf02      	ittt	eq
 80031a2:	681a      	ldreq	r2, [r3, #0]
 80031a4:	f022 0201 	biceq.w	r2, r2, #1
 80031a8:	601a      	streq	r2, [r3, #0]
 80031aa:	2301      	movs	r3, #1
 80031ac:	b98c      	cbnz	r4, 80031d2 <HAL_TIM_OC_Stop_DMA+0xaa>
 80031ae:	f885 303e 	strb.w	r3, [r5, #62]	; 0x3e
 80031b2:	2000      	movs	r0, #0
 80031b4:	e7c2      	b.n	800313c <HAL_TIM_OC_Stop_DMA+0x14>
 80031b6:	6802      	ldr	r2, [r0, #0]
 80031b8:	6a80      	ldr	r0, [r0, #40]	; 0x28
 80031ba:	68d3      	ldr	r3, [r2, #12]
 80031bc:	f423 6380 	bic.w	r3, r3, #1024	; 0x400
 80031c0:	60d3      	str	r3, [r2, #12]
 80031c2:	e7cb      	b.n	800315c <HAL_TIM_OC_Stop_DMA+0x34>
 80031c4:	6802      	ldr	r2, [r0, #0]
 80031c6:	6ac0      	ldr	r0, [r0, #44]	; 0x2c
 80031c8:	68d3      	ldr	r3, [r2, #12]
 80031ca:	f423 6300 	bic.w	r3, r3, #2048	; 0x800
 80031ce:	60d3      	str	r3, [r2, #12]
 80031d0:	e7c4      	b.n	800315c <HAL_TIM_OC_Stop_DMA+0x34>
 80031d2:	2c04      	cmp	r4, #4
 80031d4:	d102      	bne.n	80031dc <HAL_TIM_OC_Stop_DMA+0xb4>
 80031d6:	f885 303f 	strb.w	r3, [r5, #63]	; 0x3f
 80031da:	e7ea      	b.n	80031b2 <HAL_TIM_OC_Stop_DMA+0x8a>
 80031dc:	2c08      	cmp	r4, #8
 80031de:	bf0c      	ite	eq
 80031e0:	f885 3040 	strbeq.w	r3, [r5, #64]	; 0x40
 80031e4:	f885 3041 	strbne.w	r3, [r5, #65]	; 0x41
 80031e8:	e7e3      	b.n	80031b2 <HAL_TIM_OC_Stop_DMA+0x8a>
 80031ea:	bf00      	nop
 80031ec:	40012c00 	.word	0x40012c00

080031f0 <HAL_TIM_PWM_Stop_DMA>:
 80031f0:	f7ff bf9a 	b.w	8003128 <HAL_TIM_OC_Stop_DMA>

080031f4 <HAL_TIMEx_MasterConfigSynchronization>:
 80031f4:	b530      	push	{r4, r5, lr}
 80031f6:	f890 203c 	ldrb.w	r2, [r0, #60]	; 0x3c
 80031fa:	4603      	mov	r3, r0
 80031fc:	2a01      	cmp	r2, #1
 80031fe:	f04f 0002 	mov.w	r0, #2
 8003202:	d01e      	beq.n	8003242 <HAL_TIMEx_MasterConfigSynchronization+0x4e>
 8003204:	681a      	ldr	r2, [r3, #0]
 8003206:	f883 003d 	strb.w	r0, [r3, #61]	; 0x3d
 800320a:	6854      	ldr	r4, [r2, #4]
 800320c:	680d      	ldr	r5, [r1, #0]
 800320e:	f024 0470 	bic.w	r4, r4, #112	; 0x70
 8003212:	432c      	orrs	r4, r5
 8003214:	6890      	ldr	r0, [r2, #8]
 8003216:	6054      	str	r4, [r2, #4]
 8003218:	4c0a      	ldr	r4, [pc, #40]	; (8003244 <HAL_TIMEx_MasterConfigSynchronization+0x50>)
 800321a:	42a2      	cmp	r2, r4
 800321c:	d006      	beq.n	800322c <HAL_TIMEx_MasterConfigSynchronization+0x38>
 800321e:	f1b2 4f80 	cmp.w	r2, #1073741824	; 0x40000000
 8003222:	d003      	beq.n	800322c <HAL_TIMEx_MasterConfigSynchronization+0x38>
 8003224:	f5a4 3494 	sub.w	r4, r4, #75776	; 0x12800
 8003228:	42a2      	cmp	r2, r4
 800322a:	d104      	bne.n	8003236 <HAL_TIMEx_MasterConfigSynchronization+0x42>
 800322c:	6849      	ldr	r1, [r1, #4]
 800322e:	f020 0080 	bic.w	r0, r0, #128	; 0x80
 8003232:	4301      	orrs	r1, r0
 8003234:	6091      	str	r1, [r2, #8]
 8003236:	2201      	movs	r2, #1
 8003238:	2000      	movs	r0, #0
 800323a:	f883 203d 	strb.w	r2, [r3, #61]	; 0x3d
 800323e:	f883 003c 	strb.w	r0, [r3, #60]	; 0x3c
 8003242:	bd30      	pop	{r4, r5, pc}
 8003244:	40012c00 	.word	0x40012c00

08003248 <HAL_TIMEx_ConfigBreakDeadTime>:
 8003248:	f890 303c 	ldrb.w	r3, [r0, #60]	; 0x3c
 800324c:	2b01      	cmp	r3, #1
 800324e:	d01f      	beq.n	8003290 <HAL_TIMEx_ConfigBreakDeadTime+0x48>
 8003250:	68cb      	ldr	r3, [r1, #12]
 8003252:	688a      	ldr	r2, [r1, #8]
 8003254:	f423 7340 	bic.w	r3, r3, #768	; 0x300
 8003258:	4313      	orrs	r3, r2
 800325a:	684a      	ldr	r2, [r1, #4]
 800325c:	f423 6380 	bic.w	r3, r3, #1024	; 0x400
 8003260:	4313      	orrs	r3, r2
 8003262:	680a      	ldr	r2, [r1, #0]
 8003264:	f423 6300 	bic.w	r3, r3, #2048	; 0x800
 8003268:	4313      	orrs	r3, r2
 800326a:	690a      	ldr	r2, [r1, #16]
 800326c:	f423 5380 	bic.w	r3, r3, #4096	; 0x1000
 8003270:	4313      	orrs	r3, r2
 8003272:	694a      	ldr	r2, [r1, #20]
 8003274:	f423 5300 	bic.w	r3, r3, #8192	; 0x2000
 8003278:	4313      	orrs	r3, r2
 800327a:	69ca      	ldr	r2, [r1, #28]
 800327c:	f423 4380 	bic.w	r3, r3, #16384	; 0x4000
 8003280:	4313      	orrs	r3, r2
 8003282:	6802      	ldr	r2, [r0, #0]
 8003284:	6453      	str	r3, [r2, #68]	; 0x44
 8003286:	2300      	movs	r3, #0
 8003288:	f880 303c 	strb.w	r3, [r0, #60]	; 0x3c
 800328c:	4618      	mov	r0, r3
 800328e:	4770      	bx	lr
 8003290:	2002      	movs	r0, #2
 8003292:	4770      	bx	lr

08003294 <USB_CoreInit>:
 8003294:	b084      	sub	sp, #16
 8003296:	a801      	add	r0, sp, #4
 8003298:	e880 000e 	stmia.w	r0, {r1, r2, r3}
 800329c:	b004      	add	sp, #16
 800329e:	2000      	movs	r0, #0
 80032a0:	4770      	bx	lr

080032a2 <USB_EnableGlobalInt>:
 80032a2:	4603      	mov	r3, r0
 80032a4:	f44f 423f 	mov.w	r2, #48896	; 0xbf00
 80032a8:	2000      	movs	r0, #0
 80032aa:	f8a3 0044 	strh.w	r0, [r3, #68]	; 0x44
 80032ae:	f8a3 2040 	strh.w	r2, [r3, #64]	; 0x40
 80032b2:	4770      	bx	lr

080032b4 <USB_DisableGlobalInt>:
 80032b4:	f8b0 3040 	ldrh.w	r3, [r0, #64]	; 0x40
 80032b8:	f423 537c 	bic.w	r3, r3, #16128	; 0x3f00
 80032bc:	045b      	lsls	r3, r3, #17
 80032be:	0c5b      	lsrs	r3, r3, #17
 80032c0:	f8a0 3040 	strh.w	r3, [r0, #64]	; 0x40
 80032c4:	2000      	movs	r0, #0
 80032c6:	4770      	bx	lr

080032c8 <USB_SetCurrentMode>:
 80032c8:	2000      	movs	r0, #0
 80032ca:	4770      	bx	lr

080032cc <USB_DevInit>:
 80032cc:	b084      	sub	sp, #16
 80032ce:	b510      	push	{r4, lr}
 80032d0:	4604      	mov	r4, r0
 80032d2:	a803      	add	r0, sp, #12
 80032d4:	e880 000e 	stmia.w	r0, {r1, r2, r3}
 80032d8:	2000      	movs	r0, #0
 80032da:	2301      	movs	r3, #1
 80032dc:	f8a4 3040 	strh.w	r3, [r4, #64]	; 0x40
 80032e0:	f8a4 0040 	strh.w	r0, [r4, #64]	; 0x40
 80032e4:	f8a4 0044 	strh.w	r0, [r4, #68]	; 0x44
 80032e8:	f8a4 0050 	strh.w	r0, [r4, #80]	; 0x50
 80032ec:	e8bd 4010 	ldmia.w	sp!, {r4, lr}
 80032f0:	b004      	add	sp, #16
 80032f2:	4770      	bx	lr

080032f4 <USB_ActivateEndpoint>:
 80032f4:	b5f0      	push	{r4, r5, r6, r7, lr}
 80032f6:	780a      	ldrb	r2, [r1, #0]
 80032f8:	78ce      	ldrb	r6, [r1, #3]
 80032fa:	f830 4022 	ldrh.w	r4, [r0, r2, lsl #2]
 80032fe:	4603      	mov	r3, r0
 8003300:	f424 44ec 	bic.w	r4, r4, #30208	; 0x7600
 8003304:	f024 0470 	bic.w	r4, r4, #112	; 0x70
 8003308:	0424      	lsls	r4, r4, #16
 800330a:	0c24      	lsrs	r4, r4, #16
 800330c:	2e03      	cmp	r6, #3
 800330e:	d84c      	bhi.n	80033aa <USB_ActivateEndpoint+0xb6>
 8003310:	e8df f006 	tbb	[pc, r6]
 8003314:	44464802 	.word	0x44464802
 8003318:	4630      	mov	r0, r6
 800331a:	f444 7400 	orr.w	r4, r4, #512	; 0x200
 800331e:	f248 0780 	movw	r7, #32896	; 0x8080
 8003322:	433c      	orrs	r4, r7
 8003324:	f823 4022 	strh.w	r4, [r3, r2, lsl #2]
 8003328:	f833 4022 	ldrh.w	r4, [r3, r2, lsl #2]
 800332c:	f8df c27c 	ldr.w	ip, [pc, #636]	; 80035ac <USB_ActivateEndpoint+0x2b8>
 8003330:	b2a4      	uxth	r4, r4
 8003332:	ea04 040c 	and.w	r4, r4, ip
 8003336:	4314      	orrs	r4, r2
 8003338:	433c      	orrs	r4, r7
 800333a:	f823 4022 	strh.w	r4, [r3, r2, lsl #2]
 800333e:	7b0c      	ldrb	r4, [r1, #12]
 8003340:	eb03 1e02 	add.w	lr, r3, r2, lsl #4
 8003344:	2c00      	cmp	r4, #0
 8003346:	f040 808b 	bne.w	8003460 <USB_ActivateEndpoint+0x16c>
 800334a:	88cd      	ldrh	r5, [r1, #6]
 800334c:	784c      	ldrb	r4, [r1, #1]
 800334e:	086d      	lsrs	r5, r5, #1
 8003350:	006d      	lsls	r5, r5, #1
 8003352:	b364      	cbz	r4, 80033ae <USB_ActivateEndpoint+0xba>
 8003354:	f8b3 4050 	ldrh.w	r4, [r3, #80]	; 0x50
 8003358:	b2a4      	uxth	r4, r4
 800335a:	4474      	add	r4, lr
 800335c:	f8a4 5400 	strh.w	r5, [r4, #1024]	; 0x400
 8003360:	f833 1022 	ldrh.w	r1, [r3, r2, lsl #2]
 8003364:	064f      	lsls	r7, r1, #25
 8003366:	d50a      	bpl.n	800337e <USB_ActivateEndpoint+0x8a>
 8003368:	f833 5022 	ldrh.w	r5, [r3, r2, lsl #2]
 800336c:	b2ad      	uxth	r5, r5
 800336e:	ea05 050c 	and.w	r5, r5, ip
 8003372:	f445 4500 	orr.w	r5, r5, #32768	; 0x8000
 8003376:	f045 05c0 	orr.w	r5, r5, #192	; 0xc0
 800337a:	f823 5022 	strh.w	r5, [r3, r2, lsl #2]
 800337e:	f833 1022 	ldrh.w	r1, [r3, r2, lsl #2]
 8003382:	4c8b      	ldr	r4, [pc, #556]	; (80035b0 <USB_ActivateEndpoint+0x2bc>)
 8003384:	b289      	uxth	r1, r1
 8003386:	2e01      	cmp	r6, #1
 8003388:	ea01 0104 	and.w	r1, r1, r4
 800338c:	d001      	beq.n	8003392 <USB_ActivateEndpoint+0x9e>
 800338e:	f081 0120 	eor.w	r1, r1, #32
 8003392:	f441 4100 	orr.w	r1, r1, #32768	; 0x8000
 8003396:	f041 0180 	orr.w	r1, r1, #128	; 0x80
 800339a:	e0bf      	b.n	800351c <USB_ActivateEndpoint+0x228>
 800339c:	f444 64c0 	orr.w	r4, r4, #1536	; 0x600
 80033a0:	2000      	movs	r0, #0
 80033a2:	e7bc      	b.n	800331e <USB_ActivateEndpoint+0x2a>
 80033a4:	f444 6480 	orr.w	r4, r4, #1024	; 0x400
 80033a8:	e7fa      	b.n	80033a0 <USB_ActivateEndpoint+0xac>
 80033aa:	2001      	movs	r0, #1
 80033ac:	e7b7      	b.n	800331e <USB_ActivateEndpoint+0x2a>
 80033ae:	f8b3 4050 	ldrh.w	r4, [r3, #80]	; 0x50
 80033b2:	b2a4      	uxth	r4, r4
 80033b4:	4474      	add	r4, lr
 80033b6:	f8a4 5408 	strh.w	r5, [r4, #1032]	; 0x408
 80033ba:	f8b3 4050 	ldrh.w	r4, [r3, #80]	; 0x50
 80033be:	b2a4      	uxth	r4, r4
 80033c0:	4474      	add	r4, lr
 80033c2:	f8b4 540c 	ldrh.w	r5, [r4, #1036]	; 0x40c
 80033c6:	f3c5 0509 	ubfx	r5, r5, #0, #10
 80033ca:	f8a4 540c 	strh.w	r5, [r4, #1036]	; 0x40c
 80033ce:	690d      	ldr	r5, [r1, #16]
 80033d0:	2d3e      	cmp	r5, #62	; 0x3e
 80033d2:	d92f      	bls.n	8003434 <USB_ActivateEndpoint+0x140>
 80033d4:	f8b4 140c 	ldrh.w	r1, [r4, #1036]	; 0x40c
 80033d8:	096e      	lsrs	r6, r5, #5
 80033da:	06ed      	lsls	r5, r5, #27
 80033dc:	bf08      	it	eq
 80033de:	f106 36ff 	addeq.w	r6, r6, #4294967295
 80033e2:	b289      	uxth	r1, r1
 80033e4:	ea41 2186 	orr.w	r1, r1, r6, lsl #10
 80033e8:	ea6f 4141 	mvn.w	r1, r1, lsl #17
 80033ec:	ea6f 4151 	mvn.w	r1, r1, lsr #17
 80033f0:	b289      	uxth	r1, r1
 80033f2:	f8a4 140c 	strh.w	r1, [r4, #1036]	; 0x40c
 80033f6:	f833 1022 	ldrh.w	r1, [r3, r2, lsl #2]
 80033fa:	044f      	lsls	r7, r1, #17
 80033fc:	d50d      	bpl.n	800341a <USB_ActivateEndpoint+0x126>
 80033fe:	f833 1022 	ldrh.w	r1, [r3, r2, lsl #2]
 8003402:	f421 41e0 	bic.w	r1, r1, #28672	; 0x7000
 8003406:	f021 0170 	bic.w	r1, r1, #112	; 0x70
 800340a:	0409      	lsls	r1, r1, #16
 800340c:	0c09      	lsrs	r1, r1, #16
 800340e:	f441 4140 	orr.w	r1, r1, #49152	; 0xc000
 8003412:	f041 0180 	orr.w	r1, r1, #128	; 0x80
 8003416:	f823 1022 	strh.w	r1, [r3, r2, lsl #2]
 800341a:	4c66      	ldr	r4, [pc, #408]	; (80035b4 <USB_ActivateEndpoint+0x2c0>)
 800341c:	b9ca      	cbnz	r2, 8003452 <USB_ActivateEndpoint+0x15e>
 800341e:	8819      	ldrh	r1, [r3, #0]
 8003420:	b289      	uxth	r1, r1
 8003422:	4021      	ands	r1, r4
 8003424:	f481 5140 	eor.w	r1, r1, #12288	; 0x3000
 8003428:	f441 4100 	orr.w	r1, r1, #32768	; 0x8000
 800342c:	f041 0180 	orr.w	r1, r1, #128	; 0x80
 8003430:	8019      	strh	r1, [r3, #0]
 8003432:	bdf0      	pop	{r4, r5, r6, r7, pc}
 8003434:	b915      	cbnz	r5, 800343c <USB_ActivateEndpoint+0x148>
 8003436:	f8b4 140c 	ldrh.w	r1, [r4, #1036]	; 0x40c
 800343a:	e7d5      	b.n	80033e8 <USB_ActivateEndpoint+0xf4>
 800343c:	07e9      	lsls	r1, r5, #31
 800343e:	f8b4 140c 	ldrh.w	r1, [r4, #1036]	; 0x40c
 8003442:	ea4f 0655 	mov.w	r6, r5, lsr #1
 8003446:	bf48      	it	mi
 8003448:	3601      	addmi	r6, #1
 800344a:	b289      	uxth	r1, r1
 800344c:	ea41 2186 	orr.w	r1, r1, r6, lsl #10
 8003450:	e7ce      	b.n	80033f0 <USB_ActivateEndpoint+0xfc>
 8003452:	f833 1022 	ldrh.w	r1, [r3, r2, lsl #2]
 8003456:	b289      	uxth	r1, r1
 8003458:	4021      	ands	r1, r4
 800345a:	f481 5100 	eor.w	r1, r1, #8192	; 0x2000
 800345e:	e798      	b.n	8003392 <USB_ActivateEndpoint+0x9e>
 8003460:	2e02      	cmp	r6, #2
 8003462:	f833 5022 	ldrh.w	r5, [r3, r2, lsl #2]
 8003466:	d15c      	bne.n	8003522 <USB_ActivateEndpoint+0x22e>
 8003468:	b2ad      	uxth	r5, r5
 800346a:	ea05 050c 	and.w	r5, r5, ip
 800346e:	f445 4501 	orr.w	r5, r5, #33024	; 0x8100
 8003472:	f045 0580 	orr.w	r5, r5, #128	; 0x80
 8003476:	f823 5022 	strh.w	r5, [r3, r2, lsl #2]
 800347a:	f8b3 4050 	ldrh.w	r4, [r3, #80]	; 0x50
 800347e:	890d      	ldrh	r5, [r1, #8]
 8003480:	b2a4      	uxth	r4, r4
 8003482:	086d      	lsrs	r5, r5, #1
 8003484:	4474      	add	r4, lr
 8003486:	006d      	lsls	r5, r5, #1
 8003488:	f8a4 5400 	strh.w	r5, [r4, #1024]	; 0x400
 800348c:	894d      	ldrh	r5, [r1, #10]
 800348e:	f8b3 4050 	ldrh.w	r4, [r3, #80]	; 0x50
 8003492:	086d      	lsrs	r5, r5, #1
 8003494:	b2a4      	uxth	r4, r4
 8003496:	4474      	add	r4, lr
 8003498:	006d      	lsls	r5, r5, #1
 800349a:	f8a4 5408 	strh.w	r5, [r4, #1032]	; 0x408
 800349e:	7849      	ldrb	r1, [r1, #1]
 80034a0:	2900      	cmp	r1, #0
 80034a2:	d146      	bne.n	8003532 <USB_ActivateEndpoint+0x23e>
 80034a4:	f833 1022 	ldrh.w	r1, [r3, r2, lsl #2]
 80034a8:	044e      	lsls	r6, r1, #17
 80034aa:	d50d      	bpl.n	80034c8 <USB_ActivateEndpoint+0x1d4>
 80034ac:	f833 1022 	ldrh.w	r1, [r3, r2, lsl #2]
 80034b0:	f421 41e0 	bic.w	r1, r1, #28672	; 0x7000
 80034b4:	f021 0170 	bic.w	r1, r1, #112	; 0x70
 80034b8:	0409      	lsls	r1, r1, #16
 80034ba:	0c09      	lsrs	r1, r1, #16
 80034bc:	f441 4140 	orr.w	r1, r1, #49152	; 0xc000
 80034c0:	f041 0180 	orr.w	r1, r1, #128	; 0x80
 80034c4:	f823 1022 	strh.w	r1, [r3, r2, lsl #2]
 80034c8:	f833 1022 	ldrh.w	r1, [r3, r2, lsl #2]
 80034cc:	064d      	lsls	r5, r1, #25
 80034ce:	d50d      	bpl.n	80034ec <USB_ActivateEndpoint+0x1f8>
 80034d0:	f833 1022 	ldrh.w	r1, [r3, r2, lsl #2]
 80034d4:	f421 41e0 	bic.w	r1, r1, #28672	; 0x7000
 80034d8:	f021 0170 	bic.w	r1, r1, #112	; 0x70
 80034dc:	0409      	lsls	r1, r1, #16
 80034de:	0c09      	lsrs	r1, r1, #16
 80034e0:	f441 4100 	orr.w	r1, r1, #32768	; 0x8000
 80034e4:	f041 01c0 	orr.w	r1, r1, #192	; 0xc0
 80034e8:	f823 1022 	strh.w	r1, [r3, r2, lsl #2]
 80034ec:	f248 0480 	movw	r4, #32896	; 0x8080
 80034f0:	f833 1022 	ldrh.w	r1, [r3, r2, lsl #2]
 80034f4:	f421 4180 	bic.w	r1, r1, #16384	; 0x4000
 80034f8:	f021 0170 	bic.w	r1, r1, #112	; 0x70
 80034fc:	0409      	lsls	r1, r1, #16
 80034fe:	0c09      	lsrs	r1, r1, #16
 8003500:	f481 5140 	eor.w	r1, r1, #12288	; 0x3000
 8003504:	4321      	orrs	r1, r4
 8003506:	f823 1022 	strh.w	r1, [r3, r2, lsl #2]
 800350a:	f833 1022 	ldrh.w	r1, [r3, r2, lsl #2]
 800350e:	f421 41e0 	bic.w	r1, r1, #28672	; 0x7000
 8003512:	f021 0140 	bic.w	r1, r1, #64	; 0x40
 8003516:	0409      	lsls	r1, r1, #16
 8003518:	0c09      	lsrs	r1, r1, #16
 800351a:	4321      	orrs	r1, r4
 800351c:	f823 1022 	strh.w	r1, [r3, r2, lsl #2]
 8003520:	e787      	b.n	8003432 <USB_ActivateEndpoint+0x13e>
 8003522:	f425 45e2 	bic.w	r5, r5, #28928	; 0x7100
 8003526:	f025 0570 	bic.w	r5, r5, #112	; 0x70
 800352a:	042d      	lsls	r5, r5, #16
 800352c:	0c2d      	lsrs	r5, r5, #16
 800352e:	433d      	orrs	r5, r7
 8003530:	e7a1      	b.n	8003476 <USB_ActivateEndpoint+0x182>
 8003532:	f833 1022 	ldrh.w	r1, [r3, r2, lsl #2]
 8003536:	044c      	lsls	r4, r1, #17
 8003538:	d50d      	bpl.n	8003556 <USB_ActivateEndpoint+0x262>
 800353a:	f833 1022 	ldrh.w	r1, [r3, r2, lsl #2]
 800353e:	f421 41e0 	bic.w	r1, r1, #28672	; 0x7000
 8003542:	f021 0170 	bic.w	r1, r1, #112	; 0x70
 8003546:	0409      	lsls	r1, r1, #16
 8003548:	0c09      	lsrs	r1, r1, #16
 800354a:	f441 4140 	orr.w	r1, r1, #49152	; 0xc000
 800354e:	f041 0180 	orr.w	r1, r1, #128	; 0x80
 8003552:	f823 1022 	strh.w	r1, [r3, r2, lsl #2]
 8003556:	f833 1022 	ldrh.w	r1, [r3, r2, lsl #2]
 800355a:	0649      	lsls	r1, r1, #25
 800355c:	d50d      	bpl.n	800357a <USB_ActivateEndpoint+0x286>
 800355e:	f833 1022 	ldrh.w	r1, [r3, r2, lsl #2]
 8003562:	f421 41e0 	bic.w	r1, r1, #28672	; 0x7000
 8003566:	f021 0170 	bic.w	r1, r1, #112	; 0x70
 800356a:	0409      	lsls	r1, r1, #16
 800356c:	0c09      	lsrs	r1, r1, #16
 800356e:	f441 4100 	orr.w	r1, r1, #32768	; 0x8000
 8003572:	f041 01c0 	orr.w	r1, r1, #192	; 0xc0
 8003576:	f823 1022 	strh.w	r1, [r3, r2, lsl #2]
 800357a:	f833 1022 	ldrh.w	r1, [r3, r2, lsl #2]
 800357e:	4c0c      	ldr	r4, [pc, #48]	; (80035b0 <USB_ActivateEndpoint+0x2bc>)
 8003580:	b289      	uxth	r1, r1
 8003582:	4021      	ands	r1, r4
 8003584:	2e01      	cmp	r6, #1
 8003586:	bf18      	it	ne
 8003588:	f081 0120 	eorne.w	r1, r1, #32
 800358c:	f441 4100 	orr.w	r1, r1, #32768	; 0x8000
 8003590:	f041 0180 	orr.w	r1, r1, #128	; 0x80
 8003594:	f823 1022 	strh.w	r1, [r3, r2, lsl #2]
 8003598:	f833 1022 	ldrh.w	r1, [r3, r2, lsl #2]
 800359c:	f421 4180 	bic.w	r1, r1, #16384	; 0x4000
 80035a0:	f021 0170 	bic.w	r1, r1, #112	; 0x70
 80035a4:	0409      	lsls	r1, r1, #16
 80035a6:	0c09      	lsrs	r1, r1, #16
 80035a8:	e6f3      	b.n	8003392 <USB_ActivateEndpoint+0x9e>
 80035aa:	bf00      	nop
 80035ac:	ffff8f8f 	.word	0xffff8f8f
 80035b0:	ffff8fbf 	.word	0xffff8fbf
 80035b4:	ffffbf8f 	.word	0xffffbf8f

080035b8 <USB_DeactivateEndpoint>:
 80035b8:	784a      	ldrb	r2, [r1, #1]
 80035ba:	780b      	ldrb	r3, [r1, #0]
 80035bc:	7b09      	ldrb	r1, [r1, #12]
 80035be:	bbd9      	cbnz	r1, 8003638 <USB_DeactivateEndpoint+0x80>
 80035c0:	b30a      	cbz	r2, 8003606 <USB_DeactivateEndpoint+0x4e>
 80035c2:	f830 2023 	ldrh.w	r2, [r0, r3, lsl #2]
 80035c6:	0651      	lsls	r1, r2, #25
 80035c8:	d50d      	bpl.n	80035e6 <USB_DeactivateEndpoint+0x2e>
 80035ca:	f830 2023 	ldrh.w	r2, [r0, r3, lsl #2]
 80035ce:	f422 42e0 	bic.w	r2, r2, #28672	; 0x7000
 80035d2:	f022 0270 	bic.w	r2, r2, #112	; 0x70
 80035d6:	0412      	lsls	r2, r2, #16
 80035d8:	0c12      	lsrs	r2, r2, #16
 80035da:	f442 4200 	orr.w	r2, r2, #32768	; 0x8000
 80035de:	f042 02c0 	orr.w	r2, r2, #192	; 0xc0
 80035e2:	f820 2023 	strh.w	r2, [r0, r3, lsl #2]
 80035e6:	f830 2023 	ldrh.w	r2, [r0, r3, lsl #2]
 80035ea:	f422 42e0 	bic.w	r2, r2, #28672	; 0x7000
 80035ee:	f022 0240 	bic.w	r2, r2, #64	; 0x40
 80035f2:	0412      	lsls	r2, r2, #16
 80035f4:	0c12      	lsrs	r2, r2, #16
 80035f6:	f442 4200 	orr.w	r2, r2, #32768	; 0x8000
 80035fa:	f042 0280 	orr.w	r2, r2, #128	; 0x80
 80035fe:	f820 2023 	strh.w	r2, [r0, r3, lsl #2]
 8003602:	2000      	movs	r0, #0
 8003604:	4770      	bx	lr
 8003606:	f830 2023 	ldrh.w	r2, [r0, r3, lsl #2]
 800360a:	0452      	lsls	r2, r2, #17
 800360c:	d50d      	bpl.n	800362a <USB_DeactivateEndpoint+0x72>
 800360e:	f830 2023 	ldrh.w	r2, [r0, r3, lsl #2]
 8003612:	f422 42e0 	bic.w	r2, r2, #28672	; 0x7000
 8003616:	f022 0270 	bic.w	r2, r2, #112	; 0x70
 800361a:	0412      	lsls	r2, r2, #16
 800361c:	0c12      	lsrs	r2, r2, #16
 800361e:	f442 4240 	orr.w	r2, r2, #49152	; 0xc000
 8003622:	f042 0280 	orr.w	r2, r2, #128	; 0x80
 8003626:	f820 2023 	strh.w	r2, [r0, r3, lsl #2]
 800362a:	f830 2023 	ldrh.w	r2, [r0, r3, lsl #2]
 800362e:	f422 4280 	bic.w	r2, r2, #16384	; 0x4000
 8003632:	f022 0270 	bic.w	r2, r2, #112	; 0x70
 8003636:	e7dc      	b.n	80035f2 <USB_DeactivateEndpoint+0x3a>
 8003638:	2a00      	cmp	r2, #0
 800363a:	d148      	bne.n	80036ce <USB_DeactivateEndpoint+0x116>
 800363c:	f830 2023 	ldrh.w	r2, [r0, r3, lsl #2]
 8003640:	0451      	lsls	r1, r2, #17
 8003642:	d50d      	bpl.n	8003660 <USB_DeactivateEndpoint+0xa8>
 8003644:	f830 2023 	ldrh.w	r2, [r0, r3, lsl #2]
 8003648:	f422 42e0 	bic.w	r2, r2, #28672	; 0x7000
 800364c:	f022 0270 	bic.w	r2, r2, #112	; 0x70
 8003650:	0412      	lsls	r2, r2, #16
 8003652:	0c12      	lsrs	r2, r2, #16
 8003654:	f442 4240 	orr.w	r2, r2, #49152	; 0xc000
 8003658:	f042 0280 	orr.w	r2, r2, #128	; 0x80
 800365c:	f820 2023 	strh.w	r2, [r0, r3, lsl #2]
 8003660:	f830 2023 	ldrh.w	r2, [r0, r3, lsl #2]
 8003664:	0652      	lsls	r2, r2, #25
 8003666:	d50d      	bpl.n	8003684 <USB_DeactivateEndpoint+0xcc>
 8003668:	f830 2023 	ldrh.w	r2, [r0, r3, lsl #2]
 800366c:	f422 42e0 	bic.w	r2, r2, #28672	; 0x7000
 8003670:	f022 0270 	bic.w	r2, r2, #112	; 0x70
 8003674:	0412      	lsls	r2, r2, #16
 8003676:	0c12      	lsrs	r2, r2, #16
 8003678:	f442 4200 	orr.w	r2, r2, #32768	; 0x8000
 800367c:	f042 02c0 	orr.w	r2, r2, #192	; 0xc0
 8003680:	f820 2023 	strh.w	r2, [r0, r3, lsl #2]
 8003684:	f248 0180 	movw	r1, #32896	; 0x8080
 8003688:	f830 2023 	ldrh.w	r2, [r0, r3, lsl #2]
 800368c:	f422 42e0 	bic.w	r2, r2, #28672	; 0x7000
 8003690:	f022 0270 	bic.w	r2, r2, #112	; 0x70
 8003694:	0412      	lsls	r2, r2, #16
 8003696:	0c12      	lsrs	r2, r2, #16
 8003698:	f442 4200 	orr.w	r2, r2, #32768	; 0x8000
 800369c:	f042 02c0 	orr.w	r2, r2, #192	; 0xc0
 80036a0:	f820 2023 	strh.w	r2, [r0, r3, lsl #2]
 80036a4:	f830 2023 	ldrh.w	r2, [r0, r3, lsl #2]
 80036a8:	f422 4280 	bic.w	r2, r2, #16384	; 0x4000
 80036ac:	f022 0270 	bic.w	r2, r2, #112	; 0x70
 80036b0:	0412      	lsls	r2, r2, #16
 80036b2:	0c12      	lsrs	r2, r2, #16
 80036b4:	430a      	orrs	r2, r1
 80036b6:	f820 2023 	strh.w	r2, [r0, r3, lsl #2]
 80036ba:	f830 2023 	ldrh.w	r2, [r0, r3, lsl #2]
 80036be:	f422 42e0 	bic.w	r2, r2, #28672	; 0x7000
 80036c2:	f022 0240 	bic.w	r2, r2, #64	; 0x40
 80036c6:	0412      	lsls	r2, r2, #16
 80036c8:	0c12      	lsrs	r2, r2, #16
 80036ca:	430a      	orrs	r2, r1
 80036cc:	e797      	b.n	80035fe <USB_DeactivateEndpoint+0x46>
 80036ce:	f830 2023 	ldrh.w	r2, [r0, r3, lsl #2]
 80036d2:	0451      	lsls	r1, r2, #17
 80036d4:	d50d      	bpl.n	80036f2 <USB_DeactivateEndpoint+0x13a>
 80036d6:	f830 2023 	ldrh.w	r2, [r0, r3, lsl #2]
 80036da:	f422 42e0 	bic.w	r2, r2, #28672	; 0x7000
 80036de:	f022 0270 	bic.w	r2, r2, #112	; 0x70
 80036e2:	0412      	lsls	r2, r2, #16
 80036e4:	0c12      	lsrs	r2, r2, #16
 80036e6:	f442 4240 	orr.w	r2, r2, #49152	; 0xc000
 80036ea:	f042 0280 	orr.w	r2, r2, #128	; 0x80
 80036ee:	f820 2023 	strh.w	r2, [r0, r3, lsl #2]
 80036f2:	f830 2023 	ldrh.w	r2, [r0, r3, lsl #2]
 80036f6:	0652      	lsls	r2, r2, #25
 80036f8:	d50d      	bpl.n	8003716 <USB_DeactivateEndpoint+0x15e>
 80036fa:	f830 2023 	ldrh.w	r2, [r0, r3, lsl #2]
 80036fe:	f422 42e0 	bic.w	r2, r2, #28672	; 0x7000
 8003702:	f022 0270 	bic.w	r2, r2, #112	; 0x70
 8003706:	0412      	lsls	r2, r2, #16
 8003708:	0c12      	lsrs	r2, r2, #16
 800370a:	f442 4200 	orr.w	r2, r2, #32768	; 0x8000
 800370e:	f042 02c0 	orr.w	r2, r2, #192	; 0xc0
 8003712:	f820 2023 	strh.w	r2, [r0, r3, lsl #2]
 8003716:	f248 0180 	movw	r1, #32896	; 0x8080
 800371a:	f830 2023 	ldrh.w	r2, [r0, r3, lsl #2]
 800371e:	f422 42e0 	bic.w	r2, r2, #28672	; 0x7000
 8003722:	f022 0270 	bic.w	r2, r2, #112	; 0x70
 8003726:	0412      	lsls	r2, r2, #16
 8003728:	0c12      	lsrs	r2, r2, #16
 800372a:	f442 4240 	orr.w	r2, r2, #49152	; 0xc000
 800372e:	f042 0280 	orr.w	r2, r2, #128	; 0x80
 8003732:	f820 2023 	strh.w	r2, [r0, r3, lsl #2]
 8003736:	f830 2023 	ldrh.w	r2, [r0, r3, lsl #2]
 800373a:	f422 42e0 	bic.w	r2, r2, #28672	; 0x7000
 800373e:	f022 0240 	bic.w	r2, r2, #64	; 0x40
 8003742:	0412      	lsls	r2, r2, #16
 8003744:	0c12      	lsrs	r2, r2, #16
 8003746:	430a      	orrs	r2, r1
 8003748:	f820 2023 	strh.w	r2, [r0, r3, lsl #2]
 800374c:	f830 2023 	ldrh.w	r2, [r0, r3, lsl #2]
 8003750:	f422 4280 	bic.w	r2, r2, #16384	; 0x4000
 8003754:	f022 0270 	bic.w	r2, r2, #112	; 0x70
 8003758:	e7b5      	b.n	80036c6 <USB_DeactivateEndpoint+0x10e>

0800375a <USB_EPSetStall>:
 800375a:	784b      	ldrb	r3, [r1, #1]
 800375c:	780a      	ldrb	r2, [r1, #0]
 800375e:	b18b      	cbz	r3, 8003784 <USB_EPSetStall+0x2a>
 8003760:	f830 3022 	ldrh.w	r3, [r0, r2, lsl #2]
 8003764:	f423 43e0 	bic.w	r3, r3, #28672	; 0x7000
 8003768:	f023 0340 	bic.w	r3, r3, #64	; 0x40
 800376c:	041b      	lsls	r3, r3, #16
 800376e:	0c1b      	lsrs	r3, r3, #16
 8003770:	f083 0310 	eor.w	r3, r3, #16
 8003774:	f443 4300 	orr.w	r3, r3, #32768	; 0x8000
 8003778:	f043 0380 	orr.w	r3, r3, #128	; 0x80
 800377c:	f820 3022 	strh.w	r3, [r0, r2, lsl #2]
 8003780:	2000      	movs	r0, #0
 8003782:	4770      	bx	lr
 8003784:	f830 3022 	ldrh.w	r3, [r0, r2, lsl #2]
 8003788:	f423 4380 	bic.w	r3, r3, #16384	; 0x4000
 800378c:	f023 0370 	bic.w	r3, r3, #112	; 0x70
 8003790:	041b      	lsls	r3, r3, #16
 8003792:	0c1b      	lsrs	r3, r3, #16
 8003794:	f483 5380 	eor.w	r3, r3, #4096	; 0x1000
 8003798:	e7ec      	b.n	8003774 <USB_EPSetStall+0x1a>

0800379a <USB_EPClearStall>:
 800379a:	7b0b      	ldrb	r3, [r1, #12]
 800379c:	bb3b      	cbnz	r3, 80037ee <USB_EPClearStall+0x54>
 800379e:	784b      	ldrb	r3, [r1, #1]
 80037a0:	780a      	ldrb	r2, [r1, #0]
 80037a2:	b333      	cbz	r3, 80037f2 <USB_EPClearStall+0x58>
 80037a4:	f830 3022 	ldrh.w	r3, [r0, r2, lsl #2]
 80037a8:	065b      	lsls	r3, r3, #25
 80037aa:	d50d      	bpl.n	80037c8 <USB_EPClearStall+0x2e>
 80037ac:	f830 3022 	ldrh.w	r3, [r0, r2, lsl #2]
 80037b0:	f423 43e0 	bic.w	r3, r3, #28672	; 0x7000
 80037b4:	f023 0370 	bic.w	r3, r3, #112	; 0x70
 80037b8:	041b      	lsls	r3, r3, #16
 80037ba:	0c1b      	lsrs	r3, r3, #16
 80037bc:	f443 4300 	orr.w	r3, r3, #32768	; 0x8000
 80037c0:	f043 03c0 	orr.w	r3, r3, #192	; 0xc0
 80037c4:	f820 3022 	strh.w	r3, [r0, r2, lsl #2]
 80037c8:	78cb      	ldrb	r3, [r1, #3]
 80037ca:	2b01      	cmp	r3, #1
 80037cc:	d00f      	beq.n	80037ee <USB_EPClearStall+0x54>
 80037ce:	f830 3022 	ldrh.w	r3, [r0, r2, lsl #2]
 80037d2:	f423 43e0 	bic.w	r3, r3, #28672	; 0x7000
 80037d6:	f023 0340 	bic.w	r3, r3, #64	; 0x40
 80037da:	041b      	lsls	r3, r3, #16
 80037dc:	0c1b      	lsrs	r3, r3, #16
 80037de:	f083 0320 	eor.w	r3, r3, #32
 80037e2:	f443 4300 	orr.w	r3, r3, #32768	; 0x8000
 80037e6:	f043 0380 	orr.w	r3, r3, #128	; 0x80
 80037ea:	f820 3022 	strh.w	r3, [r0, r2, lsl #2]
 80037ee:	2000      	movs	r0, #0
 80037f0:	4770      	bx	lr
 80037f2:	f830 3022 	ldrh.w	r3, [r0, r2, lsl #2]
 80037f6:	045b      	lsls	r3, r3, #17
 80037f8:	d50d      	bpl.n	8003816 <USB_EPClearStall+0x7c>
 80037fa:	f830 3022 	ldrh.w	r3, [r0, r2, lsl #2]
 80037fe:	f423 43e0 	bic.w	r3, r3, #28672	; 0x7000
 8003802:	f023 0370 	bic.w	r3, r3, #112	; 0x70
 8003806:	041b      	lsls	r3, r3, #16
 8003808:	0c1b      	lsrs	r3, r3, #16
 800380a:	f443 4340 	orr.w	r3, r3, #49152	; 0xc000
 800380e:	f043 0380 	orr.w	r3, r3, #128	; 0x80
 8003812:	f820 3022 	strh.w	r3, [r0, r2, lsl #2]
 8003816:	f830 3022 	ldrh.w	r3, [r0, r2, lsl #2]
 800381a:	f423 4380 	bic.w	r3, r3, #16384	; 0x4000
 800381e:	f023 0370 	bic.w	r3, r3, #112	; 0x70
 8003822:	041b      	lsls	r3, r3, #16
 8003824:	0c1b      	lsrs	r3, r3, #16
 8003826:	f483 5340 	eor.w	r3, r3, #12288	; 0x3000
 800382a:	e7da      	b.n	80037e2 <USB_EPClearStall+0x48>

0800382c <USB_SetDevAddress>:
 800382c:	b911      	cbnz	r1, 8003834 <USB_SetDevAddress+0x8>
 800382e:	2380      	movs	r3, #128	; 0x80
 8003830:	f8a0 304c 	strh.w	r3, [r0, #76]	; 0x4c
 8003834:	2000      	movs	r0, #0
 8003836:	4770      	bx	lr

08003838 <USB_DevConnect>:
 8003838:	2000      	movs	r0, #0
 800383a:	4770      	bx	lr

0800383c <USB_DevDisconnect>:
 800383c:	2000      	movs	r0, #0
 800383e:	4770      	bx	lr

08003840 <USB_ReadInterrupts>:
 8003840:	f8b0 0044 	ldrh.w	r0, [r0, #68]	; 0x44
 8003844:	b280      	uxth	r0, r0
 8003846:	4770      	bx	lr

08003848 <USB_EP0_OutStart>:
 8003848:	2000      	movs	r0, #0
 800384a:	4770      	bx	lr

0800384c <USB_WritePMA>:
 800384c:	eb00 0242 	add.w	r2, r0, r2, lsl #1
 8003850:	3301      	adds	r3, #1
 8003852:	f502 6280 	add.w	r2, r2, #1024	; 0x400
 8003856:	085b      	lsrs	r3, r3, #1
 8003858:	eb02 0383 	add.w	r3, r2, r3, lsl #2
 800385c:	4293      	cmp	r3, r2
 800385e:	d100      	bne.n	8003862 <USB_WritePMA+0x16>
 8003860:	4770      	bx	lr
 8003862:	f831 0b02 	ldrh.w	r0, [r1], #2
 8003866:	f822 0b04 	strh.w	r0, [r2], #4
 800386a:	e7f7      	b.n	800385c <USB_WritePMA+0x10>

0800386c <USB_EPStartXfer>:
 800386c:	e92d 41f0 	stmdb	sp!, {r4, r5, r6, r7, r8, lr}
 8003870:	460c      	mov	r4, r1
 8003872:	7849      	ldrb	r1, [r1, #1]
 8003874:	4605      	mov	r5, r0
 8003876:	2901      	cmp	r1, #1
 8003878:	7b22      	ldrb	r2, [r4, #12]
 800387a:	f040 811e 	bne.w	8003aba <USB_EPStartXfer+0x24e>
 800387e:	f8d4 e010 	ldr.w	lr, [r4, #16]
 8003882:	69a6      	ldr	r6, [r4, #24]
 8003884:	6961      	ldr	r1, [r4, #20]
 8003886:	4576      	cmp	r6, lr
 8003888:	bf28      	it	cs
 800388a:	4676      	movcs	r6, lr
 800388c:	bb0a      	cbnz	r2, 80038d2 <USB_EPStartXfer+0x66>
 800388e:	b2b6      	uxth	r6, r6
 8003890:	88e2      	ldrh	r2, [r4, #6]
 8003892:	4633      	mov	r3, r6
 8003894:	f7ff ffda 	bl	800384c <USB_WritePMA>
 8003898:	f8b5 2050 	ldrh.w	r2, [r5, #80]	; 0x50
 800389c:	7821      	ldrb	r1, [r4, #0]
 800389e:	b290      	uxth	r0, r2
 80038a0:	f205 4204 	addw	r2, r5, #1028	; 0x404
 80038a4:	0109      	lsls	r1, r1, #4
 80038a6:	4402      	add	r2, r0
 80038a8:	528e      	strh	r6, [r1, r2]
 80038aa:	7822      	ldrb	r2, [r4, #0]
 80038ac:	f835 3022 	ldrh.w	r3, [r5, r2, lsl #2]
 80038b0:	f423 43e0 	bic.w	r3, r3, #28672	; 0x7000
 80038b4:	f023 0340 	bic.w	r3, r3, #64	; 0x40
 80038b8:	041b      	lsls	r3, r3, #16
 80038ba:	0c1b      	lsrs	r3, r3, #16
 80038bc:	f083 0330 	eor.w	r3, r3, #48	; 0x30
 80038c0:	2000      	movs	r0, #0
 80038c2:	f443 4300 	orr.w	r3, r3, #32768	; 0x8000
 80038c6:	f043 0380 	orr.w	r3, r3, #128	; 0x80
 80038ca:	f825 3022 	strh.w	r3, [r5, r2, lsl #2]
 80038ce:	e8bd 81f0 	ldmia.w	sp!, {r4, r5, r6, r7, r8, pc}
 80038d2:	78e2      	ldrb	r2, [r4, #3]
 80038d4:	7827      	ldrb	r7, [r4, #0]
 80038d6:	2a02      	cmp	r2, #2
 80038d8:	6a23      	ldr	r3, [r4, #32]
 80038da:	ea4f 1c07 	mov.w	ip, r7, lsl #4
 80038de:	f040 80d6 	bne.w	8003a8e <USB_EPStartXfer+0x222>
 80038e2:	459e      	cmp	lr, r3
 80038e4:	f830 2027 	ldrh.w	r2, [r0, r7, lsl #2]
 80038e8:	f080 80ba 	bcs.w	8003a60 <USB_EPStartXfer+0x1f4>
 80038ec:	f422 42e0 	bic.w	r2, r2, #28672	; 0x7000
 80038f0:	f022 0270 	bic.w	r2, r2, #112	; 0x70
 80038f4:	0412      	lsls	r2, r2, #16
 80038f6:	0c12      	lsrs	r2, r2, #16
 80038f8:	f442 4201 	orr.w	r2, r2, #33024	; 0x8100
 80038fc:	f042 0280 	orr.w	r2, r2, #128	; 0x80
 8003900:	f820 2027 	strh.w	r2, [r0, r7, lsl #2]
 8003904:	f830 8027 	ldrh.w	r8, [r0, r7, lsl #2]
 8003908:	f8b0 2050 	ldrh.w	r2, [r0, #80]	; 0x50
 800390c:	1b9b      	subs	r3, r3, r6
 800390e:	f018 0840 	ands.w	r8, r8, #64	; 0x40
 8003912:	6223      	str	r3, [r4, #32]
 8003914:	b297      	uxth	r7, r2
 8003916:	b2b3      	uxth	r3, r6
 8003918:	d052      	beq.n	80039c0 <USB_EPStartXfer+0x154>
 800391a:	f200 420c 	addw	r2, r0, #1036	; 0x40c
 800391e:	443a      	add	r2, r7
 8003920:	f822 300c 	strh.w	r3, [r2, ip]
 8003924:	8962      	ldrh	r2, [r4, #10]
 8003926:	f7ff ff91 	bl	800384c <USB_WritePMA>
 800392a:	6a27      	ldr	r7, [r4, #32]
 800392c:	6923      	ldr	r3, [r4, #16]
 800392e:	6961      	ldr	r1, [r4, #20]
 8003930:	429f      	cmp	r7, r3
 8003932:	bf8a      	itet	hi
 8003934:	1bbb      	subhi	r3, r7, r6
 8003936:	2300      	movls	r3, #0
 8003938:	4637      	movhi	r7, r6
 800393a:	7862      	ldrb	r2, [r4, #1]
 800393c:	4431      	add	r1, r6
 800393e:	6223      	str	r3, [r4, #32]
 8003940:	6161      	str	r1, [r4, #20]
 8003942:	b2bb      	uxth	r3, r7
 8003944:	bb82      	cbnz	r2, 80039a8 <USB_EPStartXfer+0x13c>
 8003946:	f8b5 0050 	ldrh.w	r0, [r5, #80]	; 0x50
 800394a:	7826      	ldrb	r6, [r4, #0]
 800394c:	b282      	uxth	r2, r0
 800394e:	f205 4004 	addw	r0, r5, #1028	; 0x404
 8003952:	0136      	lsls	r6, r6, #4
 8003954:	4410      	add	r0, r2
 8003956:	5a32      	ldrh	r2, [r6, r0]
 8003958:	2f3e      	cmp	r7, #62	; 0x3e
 800395a:	f3c2 0209 	ubfx	r2, r2, #0, #10
 800395e:	5232      	strh	r2, [r6, r0]
 8003960:	d914      	bls.n	800398c <USB_EPStartXfer+0x120>
 8003962:	06fa      	lsls	r2, r7, #27
 8003964:	5a32      	ldrh	r2, [r6, r0]
 8003966:	ea4f 1c57 	mov.w	ip, r7, lsr #5
 800396a:	bf08      	it	eq
 800396c:	f10c 3cff 	addeq.w	ip, ip, #4294967295
 8003970:	b292      	uxth	r2, r2
 8003972:	ea42 228c 	orr.w	r2, r2, ip, lsl #10
 8003976:	ea6f 4242 	mvn.w	r2, r2, lsl #17
 800397a:	ea6f 4252 	mvn.w	r2, r2, lsr #17
 800397e:	b292      	uxth	r2, r2
 8003980:	5232      	strh	r2, [r6, r0]
 8003982:	8922      	ldrh	r2, [r4, #8]
 8003984:	4628      	mov	r0, r5
 8003986:	f7ff ff61 	bl	800384c <USB_WritePMA>
 800398a:	e78e      	b.n	80038aa <USB_EPStartXfer+0x3e>
 800398c:	b90f      	cbnz	r7, 8003992 <USB_EPStartXfer+0x126>
 800398e:	5a32      	ldrh	r2, [r6, r0]
 8003990:	e7f1      	b.n	8003976 <USB_EPStartXfer+0x10a>
 8003992:	5a32      	ldrh	r2, [r6, r0]
 8003994:	ea4f 0c57 	mov.w	ip, r7, lsr #1
 8003998:	07ff      	lsls	r7, r7, #31
 800399a:	bf48      	it	mi
 800399c:	f10c 0c01 	addmi.w	ip, ip, #1
 80039a0:	b292      	uxth	r2, r2
 80039a2:	ea42 228c 	orr.w	r2, r2, ip, lsl #10
 80039a6:	e7ea      	b.n	800397e <USB_EPStartXfer+0x112>
 80039a8:	2a01      	cmp	r2, #1
 80039aa:	d1ea      	bne.n	8003982 <USB_EPStartXfer+0x116>
 80039ac:	f8b5 2050 	ldrh.w	r2, [r5, #80]	; 0x50
 80039b0:	7820      	ldrb	r0, [r4, #0]
 80039b2:	b296      	uxth	r6, r2
 80039b4:	f205 4204 	addw	r2, r5, #1028	; 0x404
 80039b8:	0100      	lsls	r0, r0, #4
 80039ba:	4432      	add	r2, r6
 80039bc:	5283      	strh	r3, [r0, r2]
 80039be:	e7e0      	b.n	8003982 <USB_EPStartXfer+0x116>
 80039c0:	f200 4204 	addw	r2, r0, #1028	; 0x404
 80039c4:	443a      	add	r2, r7
 80039c6:	f822 300c 	strh.w	r3, [r2, ip]
 80039ca:	8922      	ldrh	r2, [r4, #8]
 80039cc:	f7ff ff3e 	bl	800384c <USB_WritePMA>
 80039d0:	6a27      	ldr	r7, [r4, #32]
 80039d2:	6923      	ldr	r3, [r4, #16]
 80039d4:	6961      	ldr	r1, [r4, #20]
 80039d6:	429f      	cmp	r7, r3
 80039d8:	bf8a      	itet	hi
 80039da:	1bbb      	subhi	r3, r7, r6
 80039dc:	4643      	movls	r3, r8
 80039de:	4637      	movhi	r7, r6
 80039e0:	7862      	ldrb	r2, [r4, #1]
 80039e2:	4431      	add	r1, r6
 80039e4:	6223      	str	r3, [r4, #32]
 80039e6:	6161      	str	r1, [r4, #20]
 80039e8:	b2bb      	uxth	r3, r7
 80039ea:	bb6a      	cbnz	r2, 8003a48 <USB_EPStartXfer+0x1dc>
 80039ec:	f8b5 0050 	ldrh.w	r0, [r5, #80]	; 0x50
 80039f0:	7826      	ldrb	r6, [r4, #0]
 80039f2:	b282      	uxth	r2, r0
 80039f4:	f205 400c 	addw	r0, r5, #1036	; 0x40c
 80039f8:	0136      	lsls	r6, r6, #4
 80039fa:	4410      	add	r0, r2
 80039fc:	5a32      	ldrh	r2, [r6, r0]
 80039fe:	2f3e      	cmp	r7, #62	; 0x3e
 8003a00:	f3c2 0209 	ubfx	r2, r2, #0, #10
 8003a04:	5232      	strh	r2, [r6, r0]
 8003a06:	d911      	bls.n	8003a2c <USB_EPStartXfer+0x1c0>
 8003a08:	06fa      	lsls	r2, r7, #27
 8003a0a:	5a32      	ldrh	r2, [r6, r0]
 8003a0c:	ea4f 1c57 	mov.w	ip, r7, lsr #5
 8003a10:	bf08      	it	eq
 8003a12:	f10c 3cff 	addeq.w	ip, ip, #4294967295
 8003a16:	b292      	uxth	r2, r2
 8003a18:	ea42 228c 	orr.w	r2, r2, ip, lsl #10
 8003a1c:	ea6f 4242 	mvn.w	r2, r2, lsl #17
 8003a20:	ea6f 4252 	mvn.w	r2, r2, lsr #17
 8003a24:	b292      	uxth	r2, r2
 8003a26:	5232      	strh	r2, [r6, r0]
 8003a28:	8962      	ldrh	r2, [r4, #10]
 8003a2a:	e7ab      	b.n	8003984 <USB_EPStartXfer+0x118>
 8003a2c:	b90f      	cbnz	r7, 8003a32 <USB_EPStartXfer+0x1c6>
 8003a2e:	5a32      	ldrh	r2, [r6, r0]
 8003a30:	e7f4      	b.n	8003a1c <USB_EPStartXfer+0x1b0>
 8003a32:	5a32      	ldrh	r2, [r6, r0]
 8003a34:	ea4f 0c57 	mov.w	ip, r7, lsr #1
 8003a38:	07ff      	lsls	r7, r7, #31
 8003a3a:	bf48      	it	mi
 8003a3c:	f10c 0c01 	addmi.w	ip, ip, #1
 8003a40:	b292      	uxth	r2, r2
 8003a42:	ea42 228c 	orr.w	r2, r2, ip, lsl #10
 8003a46:	e7ed      	b.n	8003a24 <USB_EPStartXfer+0x1b8>
 8003a48:	2a01      	cmp	r2, #1
 8003a4a:	d1ed      	bne.n	8003a28 <USB_EPStartXfer+0x1bc>
 8003a4c:	f8b5 2050 	ldrh.w	r2, [r5, #80]	; 0x50
 8003a50:	7820      	ldrb	r0, [r4, #0]
 8003a52:	b296      	uxth	r6, r2
 8003a54:	f205 420c 	addw	r2, r5, #1036	; 0x40c
 8003a58:	0100      	lsls	r0, r0, #4
 8003a5a:	4432      	add	r2, r6
 8003a5c:	5283      	strh	r3, [r0, r2]
 8003a5e:	e7e3      	b.n	8003a28 <USB_EPStartXfer+0x1bc>
 8003a60:	f422 42e2 	bic.w	r2, r2, #28928	; 0x7100
 8003a64:	f022 0270 	bic.w	r2, r2, #112	; 0x70
 8003a68:	0412      	lsls	r2, r2, #16
 8003a6a:	0c12      	lsrs	r2, r2, #16
 8003a6c:	f442 4200 	orr.w	r2, r2, #32768	; 0x8000
 8003a70:	f042 0280 	orr.w	r2, r2, #128	; 0x80
 8003a74:	f820 2027 	strh.w	r2, [r0, r7, lsl #2]
 8003a78:	f8b0 2050 	ldrh.w	r2, [r0, #80]	; 0x50
 8003a7c:	b29b      	uxth	r3, r3
 8003a7e:	b296      	uxth	r6, r2
 8003a80:	f200 4204 	addw	r2, r0, #1028	; 0x404
 8003a84:	4432      	add	r2, r6
 8003a86:	f822 300c 	strh.w	r3, [r2, ip]
 8003a8a:	8922      	ldrh	r2, [r4, #8]
 8003a8c:	e77b      	b.n	8003986 <USB_EPStartXfer+0x11a>
 8003a8e:	f830 2027 	ldrh.w	r2, [r0, r7, lsl #2]
 8003a92:	1b9b      	subs	r3, r3, r6
 8003a94:	f012 0f40 	tst.w	r2, #64	; 0x40
 8003a98:	f8b0 2050 	ldrh.w	r2, [r0, #80]	; 0x50
 8003a9c:	6223      	str	r3, [r4, #32]
 8003a9e:	b2b3      	uxth	r3, r6
 8003aa0:	b296      	uxth	r6, r2
 8003aa2:	d006      	beq.n	8003ab2 <USB_EPStartXfer+0x246>
 8003aa4:	f200 420c 	addw	r2, r0, #1036	; 0x40c
 8003aa8:	4432      	add	r2, r6
 8003aaa:	f822 300c 	strh.w	r3, [r2, ip]
 8003aae:	8962      	ldrh	r2, [r4, #10]
 8003ab0:	e769      	b.n	8003986 <USB_EPStartXfer+0x11a>
 8003ab2:	f200 4204 	addw	r2, r0, #1028	; 0x404
 8003ab6:	4432      	add	r2, r6
 8003ab8:	e7e5      	b.n	8003a86 <USB_EPStartXfer+0x21a>
 8003aba:	2a00      	cmp	r2, #0
 8003abc:	d131      	bne.n	8003b22 <USB_EPStartXfer+0x2b6>
 8003abe:	69a0      	ldr	r0, [r4, #24]
 8003ac0:	6923      	ldr	r3, [r4, #16]
 8003ac2:	7821      	ldrb	r1, [r4, #0]
 8003ac4:	4298      	cmp	r0, r3
 8003ac6:	bf84      	itt	hi
 8003ac8:	1ac2      	subhi	r2, r0, r3
 8003aca:	4618      	movhi	r0, r3
 8003acc:	61a2      	str	r2, [r4, #24]
 8003ace:	f8b5 2050 	ldrh.w	r2, [r5, #80]	; 0x50
 8003ad2:	0109      	lsls	r1, r1, #4
 8003ad4:	b293      	uxth	r3, r2
 8003ad6:	f205 420c 	addw	r2, r5, #1036	; 0x40c
 8003ada:	441a      	add	r2, r3
 8003adc:	5a8b      	ldrh	r3, [r1, r2]
 8003ade:	283e      	cmp	r0, #62	; 0x3e
 8003ae0:	f3c3 0309 	ubfx	r3, r3, #0, #10
 8003ae4:	528b      	strh	r3, [r1, r2]
 8003ae6:	d90d      	bls.n	8003b04 <USB_EPStartXfer+0x298>
 8003ae8:	5a8b      	ldrh	r3, [r1, r2]
 8003aea:	0946      	lsrs	r6, r0, #5
 8003aec:	06c0      	lsls	r0, r0, #27
 8003aee:	bf08      	it	eq
 8003af0:	f106 36ff 	addeq.w	r6, r6, #4294967295
 8003af4:	b29b      	uxth	r3, r3
 8003af6:	ea43 2386 	orr.w	r3, r3, r6, lsl #10
 8003afa:	ea6f 4343 	mvn.w	r3, r3, lsl #17
 8003afe:	ea6f 4353 	mvn.w	r3, r3, lsr #17
 8003b02:	e00b      	b.n	8003b1c <USB_EPStartXfer+0x2b0>
 8003b04:	b908      	cbnz	r0, 8003b0a <USB_EPStartXfer+0x29e>
 8003b06:	5a53      	ldrh	r3, [r2, r1]
 8003b08:	e7f7      	b.n	8003afa <USB_EPStartXfer+0x28e>
 8003b0a:	07c3      	lsls	r3, r0, #31
 8003b0c:	5a8b      	ldrh	r3, [r1, r2]
 8003b0e:	ea4f 0650 	mov.w	r6, r0, lsr #1
 8003b12:	bf48      	it	mi
 8003b14:	3601      	addmi	r6, #1
 8003b16:	b29b      	uxth	r3, r3
 8003b18:	ea43 2386 	orr.w	r3, r3, r6, lsl #10
 8003b1c:	b29b      	uxth	r3, r3
 8003b1e:	5253      	strh	r3, [r2, r1]
 8003b20:	e06a      	b.n	8003bf8 <USB_EPStartXfer+0x38c>
 8003b22:	78e3      	ldrb	r3, [r4, #3]
 8003b24:	2b02      	cmp	r3, #2
 8003b26:	d17c      	bne.n	8003c22 <USB_EPStartXfer+0x3b6>
 8003b28:	2900      	cmp	r1, #0
 8003b2a:	d14b      	bne.n	8003bc4 <USB_EPStartXfer+0x358>
 8003b2c:	f8b0 1050 	ldrh.w	r1, [r0, #80]	; 0x50
 8003b30:	7820      	ldrb	r0, [r4, #0]
 8003b32:	b28b      	uxth	r3, r1
 8003b34:	f205 4104 	addw	r1, r5, #1028	; 0x404
 8003b38:	0100      	lsls	r0, r0, #4
 8003b3a:	4419      	add	r1, r3
 8003b3c:	5a43      	ldrh	r3, [r0, r1]
 8003b3e:	f3c3 0309 	ubfx	r3, r3, #0, #10
 8003b42:	5243      	strh	r3, [r0, r1]
 8003b44:	6923      	ldr	r3, [r4, #16]
 8003b46:	2b3e      	cmp	r3, #62	; 0x3e
 8003b48:	d920      	bls.n	8003b8c <USB_EPStartXfer+0x320>
 8003b4a:	5a42      	ldrh	r2, [r0, r1]
 8003b4c:	095e      	lsrs	r6, r3, #5
 8003b4e:	06df      	lsls	r7, r3, #27
 8003b50:	bf08      	it	eq
 8003b52:	f106 36ff 	addeq.w	r6, r6, #4294967295
 8003b56:	b292      	uxth	r2, r2
 8003b58:	ea42 2286 	orr.w	r2, r2, r6, lsl #10
 8003b5c:	ea6f 4242 	mvn.w	r2, r2, lsl #17
 8003b60:	ea6f 4252 	mvn.w	r2, r2, lsr #17
 8003b64:	b292      	uxth	r2, r2
 8003b66:	5242      	strh	r2, [r0, r1]
 8003b68:	f8b5 1050 	ldrh.w	r1, [r5, #80]	; 0x50
 8003b6c:	7822      	ldrb	r2, [r4, #0]
 8003b6e:	f205 400c 	addw	r0, r5, #1036	; 0x40c
 8003b72:	b289      	uxth	r1, r1
 8003b74:	0112      	lsls	r2, r2, #4
 8003b76:	4401      	add	r1, r0
 8003b78:	5a50      	ldrh	r0, [r2, r1]
 8003b7a:	2b3e      	cmp	r3, #62	; 0x3e
 8003b7c:	f3c0 0009 	ubfx	r0, r0, #0, #10
 8003b80:	5250      	strh	r0, [r2, r1]
 8003b82:	d810      	bhi.n	8003ba6 <USB_EPStartXfer+0x33a>
 8003b84:	2b00      	cmp	r3, #0
 8003b86:	d143      	bne.n	8003c10 <USB_EPStartXfer+0x3a4>
 8003b88:	5a53      	ldrh	r3, [r2, r1]
 8003b8a:	e015      	b.n	8003bb8 <USB_EPStartXfer+0x34c>
 8003b8c:	b90b      	cbnz	r3, 8003b92 <USB_EPStartXfer+0x326>
 8003b8e:	5a42      	ldrh	r2, [r0, r1]
 8003b90:	e7e4      	b.n	8003b5c <USB_EPStartXfer+0x2f0>
 8003b92:	07da      	lsls	r2, r3, #31
 8003b94:	5a42      	ldrh	r2, [r0, r1]
 8003b96:	ea4f 0653 	mov.w	r6, r3, lsr #1
 8003b9a:	bf48      	it	mi
 8003b9c:	3601      	addmi	r6, #1
 8003b9e:	b292      	uxth	r2, r2
 8003ba0:	ea42 2286 	orr.w	r2, r2, r6, lsl #10
 8003ba4:	e7de      	b.n	8003b64 <USB_EPStartXfer+0x2f8>
 8003ba6:	0958      	lsrs	r0, r3, #5
 8003ba8:	06df      	lsls	r7, r3, #27
 8003baa:	5a53      	ldrh	r3, [r2, r1]
 8003bac:	bf08      	it	eq
 8003bae:	f100 30ff 	addeq.w	r0, r0, #4294967295
 8003bb2:	b29b      	uxth	r3, r3
 8003bb4:	ea43 2380 	orr.w	r3, r3, r0, lsl #10
 8003bb8:	ea6f 4343 	mvn.w	r3, r3, lsl #17
 8003bbc:	ea6f 4353 	mvn.w	r3, r3, lsr #17
 8003bc0:	b29b      	uxth	r3, r3
 8003bc2:	5253      	strh	r3, [r2, r1]
 8003bc4:	69e3      	ldr	r3, [r4, #28]
 8003bc6:	b1bb      	cbz	r3, 8003bf8 <USB_EPStartXfer+0x38c>
 8003bc8:	f244 0340 	movw	r3, #16448	; 0x4040
 8003bcc:	7822      	ldrb	r2, [r4, #0]
 8003bce:	f835 1022 	ldrh.w	r1, [r5, r2, lsl #2]
 8003bd2:	ea03 0001 	and.w	r0, r3, r1
 8003bd6:	438b      	bics	r3, r1
 8003bd8:	d000      	beq.n	8003bdc <USB_EPStartXfer+0x370>
 8003bda:	b968      	cbnz	r0, 8003bf8 <USB_EPStartXfer+0x38c>
 8003bdc:	f835 3022 	ldrh.w	r3, [r5, r2, lsl #2]
 8003be0:	f423 43e0 	bic.w	r3, r3, #28672	; 0x7000
 8003be4:	f023 0370 	bic.w	r3, r3, #112	; 0x70
 8003be8:	041b      	lsls	r3, r3, #16
 8003bea:	0c1b      	lsrs	r3, r3, #16
 8003bec:	f443 4300 	orr.w	r3, r3, #32768	; 0x8000
 8003bf0:	f043 03c0 	orr.w	r3, r3, #192	; 0xc0
 8003bf4:	f825 3022 	strh.w	r3, [r5, r2, lsl #2]
 8003bf8:	7822      	ldrb	r2, [r4, #0]
 8003bfa:	f835 3022 	ldrh.w	r3, [r5, r2, lsl #2]
 8003bfe:	f423 4380 	bic.w	r3, r3, #16384	; 0x4000
 8003c02:	f023 0370 	bic.w	r3, r3, #112	; 0x70
 8003c06:	041b      	lsls	r3, r3, #16
 8003c08:	0c1b      	lsrs	r3, r3, #16
 8003c0a:	f483 5340 	eor.w	r3, r3, #12288	; 0x3000
 8003c0e:	e657      	b.n	80038c0 <USB_EPStartXfer+0x54>
 8003c10:	0858      	lsrs	r0, r3, #1
 8003c12:	07de      	lsls	r6, r3, #31
 8003c14:	5a53      	ldrh	r3, [r2, r1]
 8003c16:	bf48      	it	mi
 8003c18:	3001      	addmi	r0, #1
 8003c1a:	b29b      	uxth	r3, r3
 8003c1c:	ea43 2380 	orr.w	r3, r3, r0, lsl #10
 8003c20:	e7ce      	b.n	8003bc0 <USB_EPStartXfer+0x354>
 8003c22:	2b01      	cmp	r3, #1
 8003c24:	d158      	bne.n	8003cd8 <USB_EPStartXfer+0x46c>
 8003c26:	69a3      	ldr	r3, [r4, #24]
 8003c28:	6922      	ldr	r2, [r4, #16]
 8003c2a:	4293      	cmp	r3, r2
 8003c2c:	bf94      	ite	ls
 8003c2e:	2000      	movls	r0, #0
 8003c30:	1a98      	subhi	r0, r3, r2
 8003c32:	61a0      	str	r0, [r4, #24]
 8003c34:	bf88      	it	hi
 8003c36:	4613      	movhi	r3, r2
 8003c38:	2900      	cmp	r1, #0
 8003c3a:	d1dd      	bne.n	8003bf8 <USB_EPStartXfer+0x38c>
 8003c3c:	f8b5 1050 	ldrh.w	r1, [r5, #80]	; 0x50
 8003c40:	7820      	ldrb	r0, [r4, #0]
 8003c42:	b28a      	uxth	r2, r1
 8003c44:	f205 4104 	addw	r1, r5, #1028	; 0x404
 8003c48:	0100      	lsls	r0, r0, #4
 8003c4a:	4411      	add	r1, r2
 8003c4c:	5a42      	ldrh	r2, [r0, r1]
 8003c4e:	2b3e      	cmp	r3, #62	; 0x3e
 8003c50:	f3c2 0209 	ubfx	r2, r2, #0, #10
 8003c54:	5242      	strh	r2, [r0, r1]
 8003c56:	d929      	bls.n	8003cac <USB_EPStartXfer+0x440>
 8003c58:	06da      	lsls	r2, r3, #27
 8003c5a:	5a42      	ldrh	r2, [r0, r1]
 8003c5c:	ea4f 1653 	mov.w	r6, r3, lsr #5
 8003c60:	bf08      	it	eq
 8003c62:	f106 36ff 	addeq.w	r6, r6, #4294967295
 8003c66:	b292      	uxth	r2, r2
 8003c68:	ea42 2286 	orr.w	r2, r2, r6, lsl #10
 8003c6c:	ea6f 4242 	mvn.w	r2, r2, lsl #17
 8003c70:	ea6f 4252 	mvn.w	r2, r2, lsr #17
 8003c74:	b292      	uxth	r2, r2
 8003c76:	5242      	strh	r2, [r0, r1]
 8003c78:	f8b5 1050 	ldrh.w	r1, [r5, #80]	; 0x50
 8003c7c:	7822      	ldrb	r2, [r4, #0]
 8003c7e:	f205 400c 	addw	r0, r5, #1036	; 0x40c
 8003c82:	b289      	uxth	r1, r1
 8003c84:	0112      	lsls	r2, r2, #4
 8003c86:	4401      	add	r1, r0
 8003c88:	5a50      	ldrh	r0, [r2, r1]
 8003c8a:	2b3e      	cmp	r3, #62	; 0x3e
 8003c8c:	f3c0 0009 	ubfx	r0, r0, #0, #10
 8003c90:	5250      	strh	r0, [r2, r1]
 8003c92:	d817      	bhi.n	8003cc4 <USB_EPStartXfer+0x458>
 8003c94:	2b00      	cmp	r3, #0
 8003c96:	f43f af36 	beq.w	8003b06 <USB_EPStartXfer+0x29a>
 8003c9a:	0858      	lsrs	r0, r3, #1
 8003c9c:	07db      	lsls	r3, r3, #31
 8003c9e:	5a53      	ldrh	r3, [r2, r1]
 8003ca0:	bf48      	it	mi
 8003ca2:	3001      	addmi	r0, #1
 8003ca4:	b29b      	uxth	r3, r3
 8003ca6:	ea43 2380 	orr.w	r3, r3, r0, lsl #10
 8003caa:	e737      	b.n	8003b1c <USB_EPStartXfer+0x2b0>
 8003cac:	b90b      	cbnz	r3, 8003cb2 <USB_EPStartXfer+0x446>
 8003cae:	5a42      	ldrh	r2, [r0, r1]
 8003cb0:	e7dc      	b.n	8003c6c <USB_EPStartXfer+0x400>
 8003cb2:	5a42      	ldrh	r2, [r0, r1]
 8003cb4:	085e      	lsrs	r6, r3, #1
 8003cb6:	07df      	lsls	r7, r3, #31
 8003cb8:	bf48      	it	mi
 8003cba:	3601      	addmi	r6, #1
 8003cbc:	b292      	uxth	r2, r2
 8003cbe:	ea42 2286 	orr.w	r2, r2, r6, lsl #10
 8003cc2:	e7d7      	b.n	8003c74 <USB_EPStartXfer+0x408>
 8003cc4:	0958      	lsrs	r0, r3, #5
 8003cc6:	06de      	lsls	r6, r3, #27
 8003cc8:	5a53      	ldrh	r3, [r2, r1]
 8003cca:	bf08      	it	eq
 8003ccc:	f100 30ff 	addeq.w	r0, r0, #4294967295
 8003cd0:	b29b      	uxth	r3, r3
 8003cd2:	ea43 2380 	orr.w	r3, r3, r0, lsl #10
 8003cd6:	e710      	b.n	8003afa <USB_EPStartXfer+0x28e>
 8003cd8:	2001      	movs	r0, #1
 8003cda:	e5f8      	b.n	80038ce <USB_EPStartXfer+0x62>

08003cdc <USB_ReadPMA>:
 8003cdc:	eb00 0242 	add.w	r2, r0, r2, lsl #1
 8003ce0:	b5f0      	push	{r4, r5, r6, r7, lr}
 8003ce2:	f502 6280 	add.w	r2, r2, #1024	; 0x400
 8003ce6:	085d      	lsrs	r5, r3, #1
 8003ce8:	460c      	mov	r4, r1
 8003cea:	4617      	mov	r7, r2
 8003cec:	462e      	mov	r6, r5
 8003cee:	3402      	adds	r4, #2
 8003cf0:	b936      	cbnz	r6, 8003d00 <USB_ReadPMA+0x24>
 8003cf2:	07db      	lsls	r3, r3, #31
 8003cf4:	bf44      	itt	mi
 8003cf6:	f832 3025 	ldrhmi.w	r3, [r2, r5, lsl #2]
 8003cfa:	f801 3015 	strbmi.w	r3, [r1, r5, lsl #1]
 8003cfe:	bdf0      	pop	{r4, r5, r6, r7, pc}
 8003d00:	f837 0b04 	ldrh.w	r0, [r7], #4
 8003d04:	3e01      	subs	r6, #1
 8003d06:	b280      	uxth	r0, r0
 8003d08:	f804 0c02 	strb.w	r0, [r4, #-2]
 8003d0c:	0a00      	lsrs	r0, r0, #8
 8003d0e:	f804 0c01 	strb.w	r0, [r4, #-1]
 8003d12:	e7ec      	b.n	8003cee <USB_ReadPMA+0x12>

08003d14 <USBD_CUSTOM_HID_GetFSCfgDesc>:
 8003d14:	2329      	movs	r3, #41	; 0x29
 8003d16:	8003      	strh	r3, [r0, #0]
 8003d18:	4800      	ldr	r0, [pc, #0]	; (8003d1c <USBD_CUSTOM_HID_GetFSCfgDesc+0x8>)
 8003d1a:	4770      	bx	lr
 8003d1c:	20000044 	.word	0x20000044

08003d20 <USBD_CUSTOM_HID_GetHSCfgDesc>:
 8003d20:	2329      	movs	r3, #41	; 0x29
 8003d22:	8003      	strh	r3, [r0, #0]
 8003d24:	4800      	ldr	r0, [pc, #0]	; (8003d28 <USBD_CUSTOM_HID_GetHSCfgDesc+0x8>)
 8003d26:	4770      	bx	lr
 8003d28:	20000070 	.word	0x20000070

08003d2c <USBD_CUSTOM_HID_GetOtherSpeedCfgDesc>:
 8003d2c:	2329      	movs	r3, #41	; 0x29
 8003d2e:	8003      	strh	r3, [r0, #0]
 8003d30:	4800      	ldr	r0, [pc, #0]	; (8003d34 <USBD_CUSTOM_HID_GetOtherSpeedCfgDesc+0x8>)
 8003d32:	4770      	bx	lr
 8003d34:	200000b4 	.word	0x200000b4

08003d38 <USBD_CUSTOM_HID_DataIn>:
 8003d38:	f8d0 32b8 	ldr.w	r3, [r0, #696]	; 0x2b8
 8003d3c:	2000      	movs	r0, #0
 8003d3e:	7518      	strb	r0, [r3, #20]
 8003d40:	4770      	bx	lr

08003d42 <USBD_CUSTOM_HID_EP0_RxReady>:
 8003d42:	b510      	push	{r4, lr}
 8003d44:	f8d0 42b8 	ldr.w	r4, [r0, #696]	; 0x2b8
 8003d48:	6923      	ldr	r3, [r4, #16]
 8003d4a:	2b01      	cmp	r3, #1
 8003d4c:	d107      	bne.n	8003d5e <USBD_CUSTOM_HID_EP0_RxReady+0x1c>
 8003d4e:	f8d0 32bc 	ldr.w	r3, [r0, #700]	; 0x2bc
 8003d52:	7861      	ldrb	r1, [r4, #1]
 8003d54:	68db      	ldr	r3, [r3, #12]
 8003d56:	7820      	ldrb	r0, [r4, #0]
 8003d58:	4798      	blx	r3
 8003d5a:	2300      	movs	r3, #0
 8003d5c:	6123      	str	r3, [r4, #16]
 8003d5e:	2000      	movs	r0, #0
 8003d60:	bd10      	pop	{r4, pc}
	...

08003d64 <USBD_CUSTOM_HID_GetDeviceQualifierDesc>:
 8003d64:	230a      	movs	r3, #10
 8003d66:	8003      	strh	r3, [r0, #0]
 8003d68:	4800      	ldr	r0, [pc, #0]	; (8003d6c <USBD_CUSTOM_HID_GetDeviceQualifierDesc+0x8>)
 8003d6a:	4770      	bx	lr
 8003d6c:	200000a8 	.word	0x200000a8

08003d70 <USBD_CUSTOM_HID_DataOut>:
 8003d70:	b538      	push	{r3, r4, r5, lr}
 8003d72:	e9d0 53ae 	ldrd	r5, r3, [r0, #696]	; 0x2b8
 8003d76:	4604      	mov	r4, r0
 8003d78:	7869      	ldrb	r1, [r5, #1]
 8003d7a:	68db      	ldr	r3, [r3, #12]
 8003d7c:	7828      	ldrb	r0, [r5, #0]
 8003d7e:	4798      	blx	r3
 8003d80:	2302      	movs	r3, #2
 8003d82:	462a      	mov	r2, r5
 8003d84:	2101      	movs	r1, #1
 8003d86:	4620      	mov	r0, r4
 8003d88:	f000 fe12 	bl	80049b0 <USBD_LL_PrepareReceive>
 8003d8c:	2000      	movs	r0, #0
 8003d8e:	bd38      	pop	{r3, r4, r5, pc}

08003d90 <USBD_CUSTOM_HID_Setup>:
 8003d90:	b537      	push	{r0, r1, r2, r4, r5, lr}
 8003d92:	2200      	movs	r2, #0
 8003d94:	780c      	ldrb	r4, [r1, #0]
 8003d96:	f8d0 32b8 	ldr.w	r3, [r0, #696]	; 0x2b8
 8003d9a:	f014 0460 	ands.w	r4, r4, #96	; 0x60
 8003d9e:	f8ad 2006 	strh.w	r2, [sp, #6]
 8003da2:	d026      	beq.n	8003df2 <USBD_CUSTOM_HID_Setup+0x62>
 8003da4:	2c20      	cmp	r4, #32
 8003da6:	d13a      	bne.n	8003e1e <USBD_CUSTOM_HID_Setup+0x8e>
 8003da8:	784a      	ldrb	r2, [r1, #1]
 8003daa:	3a02      	subs	r2, #2
 8003dac:	2a09      	cmp	r2, #9
 8003dae:	d836      	bhi.n	8003e1e <USBD_CUSTOM_HID_Setup+0x8e>
 8003db0:	e8df f002 	tbb	[pc, r2]
 8003db4:	35350b14 	.word	0x35350b14
 8003db8:	18353535 	.word	0x18353535
 8003dbc:	0510      	.short	0x0510
 8003dbe:	788a      	ldrb	r2, [r1, #2]
 8003dc0:	605a      	str	r2, [r3, #4]
 8003dc2:	2400      	movs	r4, #0
 8003dc4:	4620      	mov	r0, r4
 8003dc6:	b003      	add	sp, #12
 8003dc8:	bd30      	pop	{r4, r5, pc}
 8003dca:	2201      	movs	r2, #1
 8003dcc:	1d19      	adds	r1, r3, #4
 8003dce:	f000 fc12 	bl	80045f6 <USBD_CtlSendData>
 8003dd2:	e7f6      	b.n	8003dc2 <USBD_CUSTOM_HID_Setup+0x32>
 8003dd4:	884a      	ldrh	r2, [r1, #2]
 8003dd6:	0a12      	lsrs	r2, r2, #8
 8003dd8:	609a      	str	r2, [r3, #8]
 8003dda:	e7f2      	b.n	8003dc2 <USBD_CUSTOM_HID_Setup+0x32>
 8003ddc:	2201      	movs	r2, #1
 8003dde:	f103 0108 	add.w	r1, r3, #8
 8003de2:	e7f4      	b.n	8003dce <USBD_CUSTOM_HID_Setup+0x3e>
 8003de4:	2201      	movs	r2, #1
 8003de6:	611a      	str	r2, [r3, #16]
 8003de8:	88ca      	ldrh	r2, [r1, #6]
 8003dea:	4619      	mov	r1, r3
 8003dec:	f000 fc18 	bl	8004620 <USBD_CtlPrepareRx>
 8003df0:	e7e7      	b.n	8003dc2 <USBD_CUSTOM_HID_Setup+0x32>
 8003df2:	784d      	ldrb	r5, [r1, #1]
 8003df4:	2d0b      	cmp	r5, #11
 8003df6:	d812      	bhi.n	8003e1e <USBD_CUSTOM_HID_Setup+0x8e>
 8003df8:	e8df f005 	tbb	[pc, r5]
 8003dfc:	11111106 	.word	0x11111106
 8003e00:	11151111 	.word	0x11151111
 8003e04:	362e1111 	.word	0x362e1111
 8003e08:	f890 329c 	ldrb.w	r3, [r0, #668]	; 0x29c
 8003e0c:	2b03      	cmp	r3, #3
 8003e0e:	d106      	bne.n	8003e1e <USBD_CUSTOM_HID_Setup+0x8e>
 8003e10:	2202      	movs	r2, #2
 8003e12:	f10d 0106 	add.w	r1, sp, #6
 8003e16:	f000 fbee 	bl	80045f6 <USBD_CtlSendData>
 8003e1a:	462c      	mov	r4, r5
 8003e1c:	e7d2      	b.n	8003dc4 <USBD_CUSTOM_HID_Setup+0x34>
 8003e1e:	f000 fbc3 	bl	80045a8 <USBD_CtlError>
 8003e22:	2402      	movs	r4, #2
 8003e24:	e7ce      	b.n	8003dc4 <USBD_CUSTOM_HID_Setup+0x34>
 8003e26:	884b      	ldrh	r3, [r1, #2]
 8003e28:	0a1b      	lsrs	r3, r3, #8
 8003e2a:	2b22      	cmp	r3, #34	; 0x22
 8003e2c:	d109      	bne.n	8003e42 <USBD_CUSTOM_HID_Setup+0xb2>
 8003e2e:	88ca      	ldrh	r2, [r1, #6]
 8003e30:	f8d0 32bc 	ldr.w	r3, [r0, #700]	; 0x2bc
 8003e34:	2a20      	cmp	r2, #32
 8003e36:	bf28      	it	cs
 8003e38:	2220      	movcs	r2, #32
 8003e3a:	6819      	ldr	r1, [r3, #0]
 8003e3c:	f000 fbdb 	bl	80045f6 <USBD_CtlSendData>
 8003e40:	e7c0      	b.n	8003dc4 <USBD_CUSTOM_HID_Setup+0x34>
 8003e42:	2b21      	cmp	r3, #33	; 0x21
 8003e44:	d105      	bne.n	8003e52 <USBD_CUSTOM_HID_Setup+0xc2>
 8003e46:	88ca      	ldrh	r2, [r1, #6]
 8003e48:	490b      	ldr	r1, [pc, #44]	; (8003e78 <USBD_CUSTOM_HID_Setup+0xe8>)
 8003e4a:	2a09      	cmp	r2, #9
 8003e4c:	bf28      	it	cs
 8003e4e:	2209      	movcs	r2, #9
 8003e50:	e7f4      	b.n	8003e3c <USBD_CUSTOM_HID_Setup+0xac>
 8003e52:	2100      	movs	r1, #0
 8003e54:	460a      	mov	r2, r1
 8003e56:	e7f1      	b.n	8003e3c <USBD_CUSTOM_HID_Setup+0xac>
 8003e58:	f890 229c 	ldrb.w	r2, [r0, #668]	; 0x29c
 8003e5c:	2a03      	cmp	r2, #3
 8003e5e:	d1de      	bne.n	8003e1e <USBD_CUSTOM_HID_Setup+0x8e>
 8003e60:	2201      	movs	r2, #1
 8003e62:	f103 010c 	add.w	r1, r3, #12
 8003e66:	e7e9      	b.n	8003e3c <USBD_CUSTOM_HID_Setup+0xac>
 8003e68:	f890 229c 	ldrb.w	r2, [r0, #668]	; 0x29c
 8003e6c:	2a03      	cmp	r2, #3
 8003e6e:	d1d6      	bne.n	8003e1e <USBD_CUSTOM_HID_Setup+0x8e>
 8003e70:	788a      	ldrb	r2, [r1, #2]
 8003e72:	60da      	str	r2, [r3, #12]
 8003e74:	e7a6      	b.n	8003dc4 <USBD_CUSTOM_HID_Setup+0x34>
 8003e76:	bf00      	nop
 8003e78:	2000009c 	.word	0x2000009c

08003e7c <USBD_CUSTOM_HID_DeInit>:
 8003e7c:	b538      	push	{r3, r4, r5, lr}
 8003e7e:	4604      	mov	r4, r0
 8003e80:	2500      	movs	r5, #0
 8003e82:	2181      	movs	r1, #129	; 0x81
 8003e84:	f000 fd55 	bl	8004932 <USBD_LL_CloseEP>
 8003e88:	2101      	movs	r1, #1
 8003e8a:	4620      	mov	r0, r4
 8003e8c:	62e5      	str	r5, [r4, #44]	; 0x2c
 8003e8e:	f000 fd50 	bl	8004932 <USBD_LL_CloseEP>
 8003e92:	f8d4 32b8 	ldr.w	r3, [r4, #696]	; 0x2b8
 8003e96:	f8c4 516c 	str.w	r5, [r4, #364]	; 0x16c
 8003e9a:	b14b      	cbz	r3, 8003eb0 <USBD_CUSTOM_HID_DeInit+0x34>
 8003e9c:	f8d4 32bc 	ldr.w	r3, [r4, #700]	; 0x2bc
 8003ea0:	689b      	ldr	r3, [r3, #8]
 8003ea2:	4798      	blx	r3
 8003ea4:	f8d4 02b8 	ldr.w	r0, [r4, #696]	; 0x2b8
 8003ea8:	f000 fd90 	bl	80049cc <USBD_static_free>
 8003eac:	f8c4 52b8 	str.w	r5, [r4, #696]	; 0x2b8
 8003eb0:	2000      	movs	r0, #0
 8003eb2:	bd38      	pop	{r3, r4, r5, pc}

08003eb4 <USBD_CUSTOM_HID_Init>:
 8003eb4:	b5f8      	push	{r3, r4, r5, r6, r7, lr}
 8003eb6:	4605      	mov	r5, r0
 8003eb8:	2401      	movs	r4, #1
 8003eba:	2302      	movs	r3, #2
 8003ebc:	2203      	movs	r2, #3
 8003ebe:	2181      	movs	r1, #129	; 0x81
 8003ec0:	f000 fd2b 	bl	800491a <USBD_LL_OpenEP>
 8003ec4:	2302      	movs	r3, #2
 8003ec6:	2203      	movs	r2, #3
 8003ec8:	4621      	mov	r1, r4
 8003eca:	4628      	mov	r0, r5
 8003ecc:	62ec      	str	r4, [r5, #44]	; 0x2c
 8003ece:	f000 fd24 	bl	800491a <USBD_LL_OpenEP>
 8003ed2:	2018      	movs	r0, #24
 8003ed4:	f8c5 416c 	str.w	r4, [r5, #364]	; 0x16c
 8003ed8:	f000 fd74 	bl	80049c4 <USBD_static_malloc>
 8003edc:	4606      	mov	r6, r0
 8003ede:	f8c5 02b8 	str.w	r0, [r5, #696]	; 0x2b8
 8003ee2:	b168      	cbz	r0, 8003f00 <USBD_CUSTOM_HID_Init+0x4c>
 8003ee4:	2700      	movs	r7, #0
 8003ee6:	7507      	strb	r7, [r0, #20]
 8003ee8:	f8d5 32bc 	ldr.w	r3, [r5, #700]	; 0x2bc
 8003eec:	685b      	ldr	r3, [r3, #4]
 8003eee:	4798      	blx	r3
 8003ef0:	2302      	movs	r3, #2
 8003ef2:	4632      	mov	r2, r6
 8003ef4:	4621      	mov	r1, r4
 8003ef6:	4628      	mov	r0, r5
 8003ef8:	f000 fd5a 	bl	80049b0 <USBD_LL_PrepareReceive>
 8003efc:	4638      	mov	r0, r7
 8003efe:	bdf8      	pop	{r3, r4, r5, r6, r7, pc}
 8003f00:	4620      	mov	r0, r4
 8003f02:	e7fc      	b.n	8003efe <USBD_CUSTOM_HID_Init+0x4a>

08003f04 <USBD_CUSTOM_HID_SendReport>:
 8003f04:	b538      	push	{r3, r4, r5, lr}
 8003f06:	4613      	mov	r3, r2
 8003f08:	f890 229c 	ldrb.w	r2, [r0, #668]	; 0x29c
 8003f0c:	2a03      	cmp	r2, #3
 8003f0e:	d10b      	bne.n	8003f28 <USBD_CUSTOM_HID_SendReport+0x24>
 8003f10:	f8d0 52b8 	ldr.w	r5, [r0, #696]	; 0x2b8
 8003f14:	2201      	movs	r2, #1
 8003f16:	7d2c      	ldrb	r4, [r5, #20]
 8003f18:	b944      	cbnz	r4, 8003f2c <USBD_CUSTOM_HID_SendReport+0x28>
 8003f1a:	752a      	strb	r2, [r5, #20]
 8003f1c:	460a      	mov	r2, r1
 8003f1e:	2181      	movs	r1, #129	; 0x81
 8003f20:	f000 fd3d 	bl	800499e <USBD_LL_Transmit>
 8003f24:	4620      	mov	r0, r4
 8003f26:	bd38      	pop	{r3, r4, r5, pc}
 8003f28:	2400      	movs	r4, #0
 8003f2a:	e7fb      	b.n	8003f24 <USBD_CUSTOM_HID_SendReport+0x20>
 8003f2c:	4614      	mov	r4, r2
 8003f2e:	e7f9      	b.n	8003f24 <USBD_CUSTOM_HID_SendReport+0x20>

08003f30 <USBD_CUSTOM_HID_RegisterInterface>:
 8003f30:	b119      	cbz	r1, 8003f3a <USBD_CUSTOM_HID_RegisterInterface+0xa>
 8003f32:	f8c0 12bc 	str.w	r1, [r0, #700]	; 0x2bc
 8003f36:	2000      	movs	r0, #0
 8003f38:	4770      	bx	lr
 8003f3a:	2002      	movs	r0, #2
 8003f3c:	4770      	bx	lr

08003f3e <USBD_Init>:
 8003f3e:	b508      	push	{r3, lr}
 8003f40:	b180      	cbz	r0, 8003f64 <USBD_Init+0x26>
 8003f42:	f8d0 32b4 	ldr.w	r3, [r0, #692]	; 0x2b4
 8003f46:	b113      	cbz	r3, 8003f4e <USBD_Init+0x10>
 8003f48:	2300      	movs	r3, #0
 8003f4a:	f8c0 32b4 	str.w	r3, [r0, #692]	; 0x2b4
 8003f4e:	b109      	cbz	r1, 8003f54 <USBD_Init+0x16>
 8003f50:	f8c0 12b0 	str.w	r1, [r0, #688]	; 0x2b0
 8003f54:	2301      	movs	r3, #1
 8003f56:	7002      	strb	r2, [r0, #0]
 8003f58:	f880 329c 	strb.w	r3, [r0, #668]	; 0x29c
 8003f5c:	f000 fc9c 	bl	8004898 <USBD_LL_Init>
 8003f60:	2000      	movs	r0, #0
 8003f62:	bd08      	pop	{r3, pc}
 8003f64:	2002      	movs	r0, #2
 8003f66:	e7fc      	b.n	8003f62 <USBD_Init+0x24>

08003f68 <USBD_RegisterClass>:
 8003f68:	b119      	cbz	r1, 8003f72 <USBD_RegisterClass+0xa>
 8003f6a:	f8c0 12b4 	str.w	r1, [r0, #692]	; 0x2b4
 8003f6e:	2000      	movs	r0, #0
 8003f70:	4770      	bx	lr
 8003f72:	2002      	movs	r0, #2
 8003f74:	4770      	bx	lr

08003f76 <USBD_Start>:
 8003f76:	b508      	push	{r3, lr}
 8003f78:	f000 fcc6 	bl	8004908 <USBD_LL_Start>
 8003f7c:	2000      	movs	r0, #0
 8003f7e:	bd08      	pop	{r3, pc}

08003f80 <USBD_SetClassConfig>:
 8003f80:	b508      	push	{r3, lr}
 8003f82:	f8d0 32b4 	ldr.w	r3, [r0, #692]	; 0x2b4
 8003f86:	b90b      	cbnz	r3, 8003f8c <USBD_SetClassConfig+0xc>
 8003f88:	2002      	movs	r0, #2
 8003f8a:	bd08      	pop	{r3, pc}
 8003f8c:	681b      	ldr	r3, [r3, #0]
 8003f8e:	4798      	blx	r3
 8003f90:	2800      	cmp	r0, #0
 8003f92:	d0fa      	beq.n	8003f8a <USBD_SetClassConfig+0xa>
 8003f94:	e7f8      	b.n	8003f88 <USBD_SetClassConfig+0x8>

08003f96 <USBD_ClrClassConfig>:
 8003f96:	b508      	push	{r3, lr}
 8003f98:	f8d0 32b4 	ldr.w	r3, [r0, #692]	; 0x2b4
 8003f9c:	685b      	ldr	r3, [r3, #4]
 8003f9e:	4798      	blx	r3
 8003fa0:	2000      	movs	r0, #0
 8003fa2:	bd08      	pop	{r3, pc}

08003fa4 <USBD_LL_SetupStage>:
 8003fa4:	b538      	push	{r3, r4, r5, lr}
 8003fa6:	f500 752a 	add.w	r5, r0, #680	; 0x2a8
 8003faa:	4604      	mov	r4, r0
 8003fac:	4628      	mov	r0, r5
 8003fae:	f000 fae7 	bl	8004580 <USBD_ParseSetupRequest>
 8003fb2:	2301      	movs	r3, #1
 8003fb4:	f894 12a8 	ldrb.w	r1, [r4, #680]	; 0x2a8
 8003fb8:	f8c4 3294 	str.w	r3, [r4, #660]	; 0x294
 8003fbc:	f8b4 32ae 	ldrh.w	r3, [r4, #686]	; 0x2ae
 8003fc0:	f8c4 3298 	str.w	r3, [r4, #664]	; 0x298
 8003fc4:	f001 031f 	and.w	r3, r1, #31
 8003fc8:	2b01      	cmp	r3, #1
 8003fca:	d008      	beq.n	8003fde <USBD_LL_SetupStage+0x3a>
 8003fcc:	2b02      	cmp	r3, #2
 8003fce:	d00b      	beq.n	8003fe8 <USBD_LL_SetupStage+0x44>
 8003fd0:	b97b      	cbnz	r3, 8003ff2 <USBD_LL_SetupStage+0x4e>
 8003fd2:	4629      	mov	r1, r5
 8003fd4:	4620      	mov	r0, r4
 8003fd6:	f000 f8fb 	bl	80041d0 <USBD_StdDevReq>
 8003fda:	2000      	movs	r0, #0
 8003fdc:	bd38      	pop	{r3, r4, r5, pc}
 8003fde:	4629      	mov	r1, r5
 8003fe0:	4620      	mov	r0, r4
 8003fe2:	f000 fa1f 	bl	8004424 <USBD_StdItfReq>
 8003fe6:	e7f8      	b.n	8003fda <USBD_LL_SetupStage+0x36>
 8003fe8:	4629      	mov	r1, r5
 8003fea:	4620      	mov	r0, r4
 8003fec:	f000 fa3e 	bl	800446c <USBD_StdEPReq>
 8003ff0:	e7f3      	b.n	8003fda <USBD_LL_SetupStage+0x36>
 8003ff2:	4620      	mov	r0, r4
 8003ff4:	f001 0180 	and.w	r1, r1, #128	; 0x80
 8003ff8:	f000 fca4 	bl	8004944 <USBD_LL_StallEP>
 8003ffc:	e7ed      	b.n	8003fda <USBD_LL_SetupStage+0x36>

08003ffe <USBD_LL_DataOutStage>:
 8003ffe:	b5f8      	push	{r3, r4, r5, r6, r7, lr}
 8004000:	4604      	mov	r4, r0
 8004002:	4617      	mov	r7, r2
 8004004:	460d      	mov	r5, r1
 8004006:	bb39      	cbnz	r1, 8004058 <USBD_LL_DataOutStage+0x5a>
 8004008:	f8d0 3294 	ldr.w	r3, [r0, #660]	; 0x294
 800400c:	2b03      	cmp	r3, #3
 800400e:	d11c      	bne.n	800404a <USBD_LL_DataOutStage+0x4c>
 8004010:	e9d0 6258 	ldrd	r6, r2, [r0, #352]	; 0x160
 8004014:	4296      	cmp	r6, r2
 8004016:	d90b      	bls.n	8004030 <USBD_LL_DataOutStage+0x32>
 8004018:	1ab6      	subs	r6, r6, r2
 800401a:	42b2      	cmp	r2, r6
 800401c:	4639      	mov	r1, r7
 800401e:	f8c0 6160 	str.w	r6, [r0, #352]	; 0x160
 8004022:	bf8c      	ite	hi
 8004024:	b2b2      	uxthhi	r2, r6
 8004026:	b292      	uxthls	r2, r2
 8004028:	f000 fb07 	bl	800463a <USBD_CtlContinueRx>
 800402c:	4628      	mov	r0, r5
 800402e:	bdf8      	pop	{r3, r4, r5, r6, r7, pc}
 8004030:	f8d0 32b4 	ldr.w	r3, [r0, #692]	; 0x2b4
 8004034:	691b      	ldr	r3, [r3, #16]
 8004036:	b123      	cbz	r3, 8004042 <USBD_LL_DataOutStage+0x44>
 8004038:	f890 229c 	ldrb.w	r2, [r0, #668]	; 0x29c
 800403c:	2a03      	cmp	r2, #3
 800403e:	d100      	bne.n	8004042 <USBD_LL_DataOutStage+0x44>
 8004040:	4798      	blx	r3
 8004042:	4620      	mov	r0, r4
 8004044:	f000 fb01 	bl	800464a <USBD_CtlSendStatus>
 8004048:	e7f0      	b.n	800402c <USBD_LL_DataOutStage+0x2e>
 800404a:	2b05      	cmp	r3, #5
 800404c:	d1ee      	bne.n	800402c <USBD_LL_DataOutStage+0x2e>
 800404e:	f8c4 1294 	str.w	r1, [r4, #660]	; 0x294
 8004052:	f000 fc77 	bl	8004944 <USBD_LL_StallEP>
 8004056:	e7e9      	b.n	800402c <USBD_LL_DataOutStage+0x2e>
 8004058:	f8d0 32b4 	ldr.w	r3, [r0, #692]	; 0x2b4
 800405c:	699b      	ldr	r3, [r3, #24]
 800405e:	b133      	cbz	r3, 800406e <USBD_LL_DataOutStage+0x70>
 8004060:	f890 229c 	ldrb.w	r2, [r0, #668]	; 0x29c
 8004064:	2a03      	cmp	r2, #3
 8004066:	d102      	bne.n	800406e <USBD_LL_DataOutStage+0x70>
 8004068:	4798      	blx	r3
 800406a:	2500      	movs	r5, #0
 800406c:	e7de      	b.n	800402c <USBD_LL_DataOutStage+0x2e>
 800406e:	2502      	movs	r5, #2
 8004070:	e7dc      	b.n	800402c <USBD_LL_DataOutStage+0x2e>

08004072 <USBD_LL_DataInStage>:
 8004072:	b5f8      	push	{r3, r4, r5, r6, r7, lr}
 8004074:	4604      	mov	r4, r0
 8004076:	4617      	mov	r7, r2
 8004078:	460d      	mov	r5, r1
 800407a:	2900      	cmp	r1, #0
 800407c:	d147      	bne.n	800410e <USBD_LL_DataInStage+0x9c>
 800407e:	f8d0 3294 	ldr.w	r3, [r0, #660]	; 0x294
 8004082:	2b02      	cmp	r3, #2
 8004084:	d13c      	bne.n	8004100 <USBD_LL_DataInStage+0x8e>
 8004086:	e9d0 6308 	ldrd	r6, r3, [r0, #32]
 800408a:	429e      	cmp	r6, r3
 800408c:	d914      	bls.n	80040b8 <USBD_LL_DataInStage+0x46>
 800408e:	1af3      	subs	r3, r6, r3
 8004090:	4639      	mov	r1, r7
 8004092:	6203      	str	r3, [r0, #32]
 8004094:	b29a      	uxth	r2, r3
 8004096:	f000 fabb 	bl	8004610 <USBD_CtlContinueSendData>
 800409a:	462b      	mov	r3, r5
 800409c:	462a      	mov	r2, r5
 800409e:	4629      	mov	r1, r5
 80040a0:	4620      	mov	r0, r4
 80040a2:	f000 fc85 	bl	80049b0 <USBD_LL_PrepareReceive>
 80040a6:	f894 32a0 	ldrb.w	r3, [r4, #672]	; 0x2a0
 80040aa:	2b01      	cmp	r3, #1
 80040ac:	d102      	bne.n	80040b4 <USBD_LL_DataInStage+0x42>
 80040ae:	2300      	movs	r3, #0
 80040b0:	f884 32a0 	strb.w	r3, [r4, #672]	; 0x2a0
 80040b4:	4628      	mov	r0, r5
 80040b6:	bdf8      	pop	{r3, r4, r5, r6, r7, pc}
 80040b8:	69c2      	ldr	r2, [r0, #28]
 80040ba:	fbb2 f6f3 	udiv	r6, r2, r3
 80040be:	fb03 2616 	mls	r6, r3, r6, r2
 80040c2:	b95e      	cbnz	r6, 80040dc <USBD_LL_DataInStage+0x6a>
 80040c4:	4293      	cmp	r3, r2
 80040c6:	d809      	bhi.n	80040dc <USBD_LL_DataInStage+0x6a>
 80040c8:	f8d0 3298 	ldr.w	r3, [r0, #664]	; 0x298
 80040cc:	429a      	cmp	r2, r3
 80040ce:	d205      	bcs.n	80040dc <USBD_LL_DataInStage+0x6a>
 80040d0:	460a      	mov	r2, r1
 80040d2:	f000 fa9d 	bl	8004610 <USBD_CtlContinueSendData>
 80040d6:	f8c4 5298 	str.w	r5, [r4, #664]	; 0x298
 80040da:	e7de      	b.n	800409a <USBD_LL_DataInStage+0x28>
 80040dc:	f8d4 32b4 	ldr.w	r3, [r4, #692]	; 0x2b4
 80040e0:	68db      	ldr	r3, [r3, #12]
 80040e2:	b12b      	cbz	r3, 80040f0 <USBD_LL_DataInStage+0x7e>
 80040e4:	f894 229c 	ldrb.w	r2, [r4, #668]	; 0x29c
 80040e8:	2a03      	cmp	r2, #3
 80040ea:	d101      	bne.n	80040f0 <USBD_LL_DataInStage+0x7e>
 80040ec:	4620      	mov	r0, r4
 80040ee:	4798      	blx	r3
 80040f0:	2180      	movs	r1, #128	; 0x80
 80040f2:	4620      	mov	r0, r4
 80040f4:	f000 fc26 	bl	8004944 <USBD_LL_StallEP>
 80040f8:	4620      	mov	r0, r4
 80040fa:	f000 fab1 	bl	8004660 <USBD_CtlReceiveStatus>
 80040fe:	e7d2      	b.n	80040a6 <USBD_LL_DataInStage+0x34>
 8004100:	f033 0304 	bics.w	r3, r3, #4
 8004104:	d1cf      	bne.n	80040a6 <USBD_LL_DataInStage+0x34>
 8004106:	2180      	movs	r1, #128	; 0x80
 8004108:	f000 fc1c 	bl	8004944 <USBD_LL_StallEP>
 800410c:	e7cb      	b.n	80040a6 <USBD_LL_DataInStage+0x34>
 800410e:	f8d0 32b4 	ldr.w	r3, [r0, #692]	; 0x2b4
 8004112:	695b      	ldr	r3, [r3, #20]
 8004114:	b133      	cbz	r3, 8004124 <USBD_LL_DataInStage+0xb2>
 8004116:	f890 229c 	ldrb.w	r2, [r0, #668]	; 0x29c
 800411a:	2a03      	cmp	r2, #3
 800411c:	d102      	bne.n	8004124 <USBD_LL_DataInStage+0xb2>
 800411e:	4798      	blx	r3
 8004120:	2500      	movs	r5, #0
 8004122:	e7c7      	b.n	80040b4 <USBD_LL_DataInStage+0x42>
 8004124:	2502      	movs	r5, #2
 8004126:	e7c5      	b.n	80040b4 <USBD_LL_DataInStage+0x42>

08004128 <USBD_LL_Reset>:
 8004128:	2200      	movs	r2, #0
 800412a:	b570      	push	{r4, r5, r6, lr}
 800412c:	4604      	mov	r4, r0
 800412e:	2501      	movs	r5, #1
 8004130:	2640      	movs	r6, #64	; 0x40
 8004132:	4611      	mov	r1, r2
 8004134:	2340      	movs	r3, #64	; 0x40
 8004136:	f000 fbf0 	bl	800491a <USBD_LL_OpenEP>
 800413a:	4633      	mov	r3, r6
 800413c:	2180      	movs	r1, #128	; 0x80
 800413e:	2200      	movs	r2, #0
 8004140:	4620      	mov	r0, r4
 8004142:	f8c4 5158 	str.w	r5, [r4, #344]	; 0x158
 8004146:	f8c4 6164 	str.w	r6, [r4, #356]	; 0x164
 800414a:	f000 fbe6 	bl	800491a <USBD_LL_OpenEP>
 800414e:	2100      	movs	r1, #0
 8004150:	f8d4 32b8 	ldr.w	r3, [r4, #696]	; 0x2b8
 8004154:	61a5      	str	r5, [r4, #24]
 8004156:	6266      	str	r6, [r4, #36]	; 0x24
 8004158:	f884 529c 	strb.w	r5, [r4, #668]	; 0x29c
 800415c:	f8c4 1294 	str.w	r1, [r4, #660]	; 0x294
 8004160:	6061      	str	r1, [r4, #4]
 8004162:	f8c4 12a4 	str.w	r1, [r4, #676]	; 0x2a4
 8004166:	b123      	cbz	r3, 8004172 <USBD_LL_Reset+0x4a>
 8004168:	f8d4 32b4 	ldr.w	r3, [r4, #692]	; 0x2b4
 800416c:	4620      	mov	r0, r4
 800416e:	685b      	ldr	r3, [r3, #4]
 8004170:	4798      	blx	r3
 8004172:	2000      	movs	r0, #0
 8004174:	bd70      	pop	{r4, r5, r6, pc}

08004176 <USBD_LL_SetSpeed>:
 8004176:	7401      	strb	r1, [r0, #16]
 8004178:	2000      	movs	r0, #0
 800417a:	4770      	bx	lr

0800417c <USBD_LL_Suspend>:
 800417c:	f890 329c 	ldrb.w	r3, [r0, #668]	; 0x29c
 8004180:	f880 329d 	strb.w	r3, [r0, #669]	; 0x29d
 8004184:	2304      	movs	r3, #4
 8004186:	f880 329c 	strb.w	r3, [r0, #668]	; 0x29c
 800418a:	2000      	movs	r0, #0
 800418c:	4770      	bx	lr

0800418e <USBD_LL_Resume>:
 800418e:	f890 329c 	ldrb.w	r3, [r0, #668]	; 0x29c
 8004192:	2b04      	cmp	r3, #4
 8004194:	bf04      	itt	eq
 8004196:	f890 329d 	ldrbeq.w	r3, [r0, #669]	; 0x29d
 800419a:	f880 329c 	strbeq.w	r3, [r0, #668]	; 0x29c
 800419e:	2000      	movs	r0, #0
 80041a0:	4770      	bx	lr

080041a2 <USBD_LL_SOF>:
 80041a2:	b508      	push	{r3, lr}
 80041a4:	f890 229c 	ldrb.w	r2, [r0, #668]	; 0x29c
 80041a8:	2a03      	cmp	r2, #3
 80041aa:	d104      	bne.n	80041b6 <USBD_LL_SOF+0x14>
 80041ac:	f8d0 32b4 	ldr.w	r3, [r0, #692]	; 0x2b4
 80041b0:	69db      	ldr	r3, [r3, #28]
 80041b2:	b103      	cbz	r3, 80041b6 <USBD_LL_SOF+0x14>
 80041b4:	4798      	blx	r3
 80041b6:	2000      	movs	r0, #0
 80041b8:	bd08      	pop	{r3, pc}

080041ba <USBD_CtlError.constprop.0>:
 80041ba:	b510      	push	{r4, lr}
 80041bc:	4604      	mov	r4, r0
 80041be:	2180      	movs	r1, #128	; 0x80
 80041c0:	f000 fbc0 	bl	8004944 <USBD_LL_StallEP>
 80041c4:	4620      	mov	r0, r4
 80041c6:	e8bd 4010 	ldmia.w	sp!, {r4, lr}
 80041ca:	2100      	movs	r1, #0
 80041cc:	f000 bbba 	b.w	8004944 <USBD_LL_StallEP>

080041d0 <USBD_StdDevReq>:
 80041d0:	b537      	push	{r0, r1, r2, r4, r5, lr}
 80041d2:	780b      	ldrb	r3, [r1, #0]
 80041d4:	4604      	mov	r4, r0
 80041d6:	f003 0360 	and.w	r3, r3, #96	; 0x60
 80041da:	2b20      	cmp	r3, #32
 80041dc:	460d      	mov	r5, r1
 80041de:	d012      	beq.n	8004206 <USBD_StdDevReq+0x36>
 80041e0:	2b40      	cmp	r3, #64	; 0x40
 80041e2:	d010      	beq.n	8004206 <USBD_StdDevReq+0x36>
 80041e4:	2b00      	cmp	r3, #0
 80041e6:	d151      	bne.n	800428c <USBD_StdDevReq+0xbc>
 80041e8:	784b      	ldrb	r3, [r1, #1]
 80041ea:	2b09      	cmp	r3, #9
 80041ec:	d84e      	bhi.n	800428c <USBD_StdDevReq+0xbc>
 80041ee:	e8df f013 	tbh	[pc, r3, lsl #1]
 80041f2:	00ee      	.short	0x00ee
 80041f4:	004d010a 	.word	0x004d010a
 80041f8:	004d0103 	.word	0x004d0103
 80041fc:	00130087 	.word	0x00130087
 8004200:	00d6004d 	.word	0x00d6004d
 8004204:	00a3      	.short	0x00a3
 8004206:	f8d4 32b4 	ldr.w	r3, [r4, #692]	; 0x2b4
 800420a:	4629      	mov	r1, r5
 800420c:	4620      	mov	r0, r4
 800420e:	689b      	ldr	r3, [r3, #8]
 8004210:	4798      	blx	r3
 8004212:	2000      	movs	r0, #0
 8004214:	b003      	add	sp, #12
 8004216:	bd30      	pop	{r4, r5, pc}
 8004218:	2300      	movs	r3, #0
 800421a:	f8ad 3006 	strh.w	r3, [sp, #6]
 800421e:	884b      	ldrh	r3, [r1, #2]
 8004220:	0a1a      	lsrs	r2, r3, #8
 8004222:	3a01      	subs	r2, #1
 8004224:	2a06      	cmp	r2, #6
 8004226:	d831      	bhi.n	800428c <USBD_StdDevReq+0xbc>
 8004228:	e8df f002 	tbb	[pc, r2]
 800422c:	30231604 	.word	0x30231604
 8004230:	4830      	.short	0x4830
 8004232:	52          	.byte	0x52
 8004233:	00          	.byte	0x00
 8004234:	f8d0 32b0 	ldr.w	r3, [r0, #688]	; 0x2b0
 8004238:	681b      	ldr	r3, [r3, #0]
 800423a:	7c20      	ldrb	r0, [r4, #16]
 800423c:	f10d 0106 	add.w	r1, sp, #6
 8004240:	4798      	blx	r3
 8004242:	f8bd 2006 	ldrh.w	r2, [sp, #6]
 8004246:	2a00      	cmp	r2, #0
 8004248:	d056      	beq.n	80042f8 <USBD_StdDevReq+0x128>
 800424a:	88eb      	ldrh	r3, [r5, #6]
 800424c:	2b00      	cmp	r3, #0
 800424e:	d14a      	bne.n	80042e6 <USBD_StdDevReq+0x116>
 8004250:	4620      	mov	r0, r4
 8004252:	f000 f9fa 	bl	800464a <USBD_CtlSendStatus>
 8004256:	e7dc      	b.n	8004212 <USBD_StdDevReq+0x42>
 8004258:	7c02      	ldrb	r2, [r0, #16]
 800425a:	f8d0 32b4 	ldr.w	r3, [r0, #692]	; 0x2b4
 800425e:	b932      	cbnz	r2, 800426e <USBD_StdDevReq+0x9e>
 8004260:	6a9b      	ldr	r3, [r3, #40]	; 0x28
 8004262:	f10d 0006 	add.w	r0, sp, #6
 8004266:	4798      	blx	r3
 8004268:	2302      	movs	r3, #2
 800426a:	7043      	strb	r3, [r0, #1]
 800426c:	e7e9      	b.n	8004242 <USBD_StdDevReq+0x72>
 800426e:	6adb      	ldr	r3, [r3, #44]	; 0x2c
 8004270:	e7f7      	b.n	8004262 <USBD_StdDevReq+0x92>
 8004272:	b2db      	uxtb	r3, r3
 8004274:	2b05      	cmp	r3, #5
 8004276:	d809      	bhi.n	800428c <USBD_StdDevReq+0xbc>
 8004278:	e8df f003 	tbb	[pc, r3]
 800427c:	14100c03 	.word	0x14100c03
 8004280:	1c18      	.short	0x1c18
 8004282:	f8d0 32b0 	ldr.w	r3, [r0, #688]	; 0x2b0
 8004286:	685b      	ldr	r3, [r3, #4]
 8004288:	2b00      	cmp	r3, #0
 800428a:	d1d6      	bne.n	800423a <USBD_StdDevReq+0x6a>
 800428c:	4620      	mov	r0, r4
 800428e:	f7ff ff94 	bl	80041ba <USBD_CtlError.constprop.0>
 8004292:	e7be      	b.n	8004212 <USBD_StdDevReq+0x42>
 8004294:	f8d0 32b0 	ldr.w	r3, [r0, #688]	; 0x2b0
 8004298:	689b      	ldr	r3, [r3, #8]
 800429a:	e7f5      	b.n	8004288 <USBD_StdDevReq+0xb8>
 800429c:	f8d0 32b0 	ldr.w	r3, [r0, #688]	; 0x2b0
 80042a0:	68db      	ldr	r3, [r3, #12]
 80042a2:	e7f1      	b.n	8004288 <USBD_StdDevReq+0xb8>
 80042a4:	f8d0 32b0 	ldr.w	r3, [r0, #688]	; 0x2b0
 80042a8:	691b      	ldr	r3, [r3, #16]
 80042aa:	e7ed      	b.n	8004288 <USBD_StdDevReq+0xb8>
 80042ac:	f8d0 32b0 	ldr.w	r3, [r0, #688]	; 0x2b0
 80042b0:	695b      	ldr	r3, [r3, #20]
 80042b2:	e7e9      	b.n	8004288 <USBD_StdDevReq+0xb8>
 80042b4:	f8d0 32b0 	ldr.w	r3, [r0, #688]	; 0x2b0
 80042b8:	699b      	ldr	r3, [r3, #24]
 80042ba:	e7e5      	b.n	8004288 <USBD_StdDevReq+0xb8>
 80042bc:	7c03      	ldrb	r3, [r0, #16]
 80042be:	2b00      	cmp	r3, #0
 80042c0:	d1e4      	bne.n	800428c <USBD_StdDevReq+0xbc>
 80042c2:	f8d0 32b4 	ldr.w	r3, [r0, #692]	; 0x2b4
 80042c6:	f10d 0006 	add.w	r0, sp, #6
 80042ca:	6b5b      	ldr	r3, [r3, #52]	; 0x34
 80042cc:	4798      	blx	r3
 80042ce:	e7b8      	b.n	8004242 <USBD_StdDevReq+0x72>
 80042d0:	7c03      	ldrb	r3, [r0, #16]
 80042d2:	2b00      	cmp	r3, #0
 80042d4:	d1da      	bne.n	800428c <USBD_StdDevReq+0xbc>
 80042d6:	f8d0 32b4 	ldr.w	r3, [r0, #692]	; 0x2b4
 80042da:	f10d 0006 	add.w	r0, sp, #6
 80042de:	6b1b      	ldr	r3, [r3, #48]	; 0x30
 80042e0:	4798      	blx	r3
 80042e2:	2307      	movs	r3, #7
 80042e4:	e7c1      	b.n	800426a <USBD_StdDevReq+0x9a>
 80042e6:	429a      	cmp	r2, r3
 80042e8:	bf28      	it	cs
 80042ea:	461a      	movcs	r2, r3
 80042ec:	4601      	mov	r1, r0
 80042ee:	4620      	mov	r0, r4
 80042f0:	f8ad 2006 	strh.w	r2, [sp, #6]
 80042f4:	f000 f97f 	bl	80045f6 <USBD_CtlSendData>
 80042f8:	88eb      	ldrh	r3, [r5, #6]
 80042fa:	2b00      	cmp	r3, #0
 80042fc:	d189      	bne.n	8004212 <USBD_StdDevReq+0x42>
 80042fe:	e7a7      	b.n	8004250 <USBD_StdDevReq+0x80>
 8004300:	888b      	ldrh	r3, [r1, #4]
 8004302:	2b00      	cmp	r3, #0
 8004304:	d1c2      	bne.n	800428c <USBD_StdDevReq+0xbc>
 8004306:	88cb      	ldrh	r3, [r1, #6]
 8004308:	2b00      	cmp	r3, #0
 800430a:	d1bf      	bne.n	800428c <USBD_StdDevReq+0xbc>
 800430c:	884d      	ldrh	r5, [r1, #2]
 800430e:	2d7f      	cmp	r5, #127	; 0x7f
 8004310:	d8bc      	bhi.n	800428c <USBD_StdDevReq+0xbc>
 8004312:	f890 329c 	ldrb.w	r3, [r0, #668]	; 0x29c
 8004316:	2b03      	cmp	r3, #3
 8004318:	d0b8      	beq.n	800428c <USBD_StdDevReq+0xbc>
 800431a:	b2e9      	uxtb	r1, r5
 800431c:	f880 129e 	strb.w	r1, [r0, #670]	; 0x29e
 8004320:	f000 fb34 	bl	800498c <USBD_LL_SetUSBAddress>
 8004324:	4620      	mov	r0, r4
 8004326:	f000 f990 	bl	800464a <USBD_CtlSendStatus>
 800432a:	b11d      	cbz	r5, 8004334 <USBD_StdDevReq+0x164>
 800432c:	2302      	movs	r3, #2
 800432e:	f884 329c 	strb.w	r3, [r4, #668]	; 0x29c
 8004332:	e76e      	b.n	8004212 <USBD_StdDevReq+0x42>
 8004334:	2301      	movs	r3, #1
 8004336:	e7fa      	b.n	800432e <USBD_StdDevReq+0x15e>
 8004338:	7889      	ldrb	r1, [r1, #2]
 800433a:	4d39      	ldr	r5, [pc, #228]	; (8004420 <USBD_StdDevReq+0x250>)
 800433c:	2901      	cmp	r1, #1
 800433e:	7029      	strb	r1, [r5, #0]
 8004340:	d8a4      	bhi.n	800428c <USBD_StdDevReq+0xbc>
 8004342:	f890 329c 	ldrb.w	r3, [r0, #668]	; 0x29c
 8004346:	2b02      	cmp	r3, #2
 8004348:	d008      	beq.n	800435c <USBD_StdDevReq+0x18c>
 800434a:	2b03      	cmp	r3, #3
 800434c:	d015      	beq.n	800437a <USBD_StdDevReq+0x1aa>
 800434e:	f7ff ff34 	bl	80041ba <USBD_CtlError.constprop.0>
 8004352:	4620      	mov	r0, r4
 8004354:	7829      	ldrb	r1, [r5, #0]
 8004356:	f7ff fe1e 	bl	8003f96 <USBD_ClrClassConfig>
 800435a:	e75a      	b.n	8004212 <USBD_StdDevReq+0x42>
 800435c:	2900      	cmp	r1, #0
 800435e:	f43f af77 	beq.w	8004250 <USBD_StdDevReq+0x80>
 8004362:	2101      	movs	r1, #1
 8004364:	2303      	movs	r3, #3
 8004366:	6041      	str	r1, [r0, #4]
 8004368:	f880 329c 	strb.w	r3, [r0, #668]	; 0x29c
 800436c:	4620      	mov	r0, r4
 800436e:	f7ff fe07 	bl	8003f80 <USBD_SetClassConfig>
 8004372:	2802      	cmp	r0, #2
 8004374:	f47f af6c 	bne.w	8004250 <USBD_StdDevReq+0x80>
 8004378:	e788      	b.n	800428c <USBD_StdDevReq+0xbc>
 800437a:	b931      	cbnz	r1, 800438a <USBD_StdDevReq+0x1ba>
 800437c:	2302      	movs	r3, #2
 800437e:	6041      	str	r1, [r0, #4]
 8004380:	f880 329c 	strb.w	r3, [r0, #668]	; 0x29c
 8004384:	f7ff fe07 	bl	8003f96 <USBD_ClrClassConfig>
 8004388:	e762      	b.n	8004250 <USBD_StdDevReq+0x80>
 800438a:	6841      	ldr	r1, [r0, #4]
 800438c:	2901      	cmp	r1, #1
 800438e:	f43f af5f 	beq.w	8004250 <USBD_StdDevReq+0x80>
 8004392:	b2c9      	uxtb	r1, r1
 8004394:	f7ff fdff 	bl	8003f96 <USBD_ClrClassConfig>
 8004398:	7829      	ldrb	r1, [r5, #0]
 800439a:	6061      	str	r1, [r4, #4]
 800439c:	e7e6      	b.n	800436c <USBD_StdDevReq+0x19c>
 800439e:	88ca      	ldrh	r2, [r1, #6]
 80043a0:	2a01      	cmp	r2, #1
 80043a2:	f47f af73 	bne.w	800428c <USBD_StdDevReq+0xbc>
 80043a6:	f890 329c 	ldrb.w	r3, [r0, #668]	; 0x29c
 80043aa:	2b02      	cmp	r3, #2
 80043ac:	d80a      	bhi.n	80043c4 <USBD_StdDevReq+0x1f4>
 80043ae:	2b00      	cmp	r3, #0
 80043b0:	f43f af6c 	beq.w	800428c <USBD_StdDevReq+0xbc>
 80043b4:	4601      	mov	r1, r0
 80043b6:	2300      	movs	r3, #0
 80043b8:	f841 3f08 	str.w	r3, [r1, #8]!
 80043bc:	4620      	mov	r0, r4
 80043be:	f000 f91a 	bl	80045f6 <USBD_CtlSendData>
 80043c2:	e726      	b.n	8004212 <USBD_StdDevReq+0x42>
 80043c4:	2b03      	cmp	r3, #3
 80043c6:	f47f af61 	bne.w	800428c <USBD_StdDevReq+0xbc>
 80043ca:	1d01      	adds	r1, r0, #4
 80043cc:	e7f6      	b.n	80043bc <USBD_StdDevReq+0x1ec>
 80043ce:	f890 329c 	ldrb.w	r3, [r0, #668]	; 0x29c
 80043d2:	3b01      	subs	r3, #1
 80043d4:	2b02      	cmp	r3, #2
 80043d6:	f63f af59 	bhi.w	800428c <USBD_StdDevReq+0xbc>
 80043da:	88cb      	ldrh	r3, [r1, #6]
 80043dc:	2b02      	cmp	r3, #2
 80043de:	f47f af55 	bne.w	800428c <USBD_StdDevReq+0xbc>
 80043e2:	2301      	movs	r3, #1
 80043e4:	60c3      	str	r3, [r0, #12]
 80043e6:	f8d0 32a4 	ldr.w	r3, [r0, #676]	; 0x2a4
 80043ea:	b10b      	cbz	r3, 80043f0 <USBD_StdDevReq+0x220>
 80043ec:	2303      	movs	r3, #3
 80043ee:	60c3      	str	r3, [r0, #12]
 80043f0:	2202      	movs	r2, #2
 80043f2:	f104 010c 	add.w	r1, r4, #12
 80043f6:	e7e1      	b.n	80043bc <USBD_StdDevReq+0x1ec>
 80043f8:	884b      	ldrh	r3, [r1, #2]
 80043fa:	2b01      	cmp	r3, #1
 80043fc:	f47f af09 	bne.w	8004212 <USBD_StdDevReq+0x42>
 8004400:	f8c4 32a4 	str.w	r3, [r4, #676]	; 0x2a4
 8004404:	e724      	b.n	8004250 <USBD_StdDevReq+0x80>
 8004406:	f890 329c 	ldrb.w	r3, [r0, #668]	; 0x29c
 800440a:	3b01      	subs	r3, #1
 800440c:	2b02      	cmp	r3, #2
 800440e:	f63f af3d 	bhi.w	800428c <USBD_StdDevReq+0xbc>
 8004412:	884b      	ldrh	r3, [r1, #2]
 8004414:	2b01      	cmp	r3, #1
 8004416:	f47f aefc 	bne.w	8004212 <USBD_StdDevReq+0x42>
 800441a:	2300      	movs	r3, #0
 800441c:	e7f0      	b.n	8004400 <USBD_StdDevReq+0x230>
 800441e:	bf00      	nop
 8004420:	2000066c 	.word	0x2000066c

08004424 <USBD_StdItfReq>:
 8004424:	b538      	push	{r3, r4, r5, lr}
 8004426:	780b      	ldrb	r3, [r1, #0]
 8004428:	4604      	mov	r4, r0
 800442a:	f003 0260 	and.w	r2, r3, #96	; 0x60
 800442e:	2a40      	cmp	r2, #64	; 0x40
 8004430:	460d      	mov	r5, r1
 8004432:	d001      	beq.n	8004438 <USBD_StdItfReq+0x14>
 8004434:	065b      	lsls	r3, r3, #25
 8004436:	d415      	bmi.n	8004464 <USBD_StdItfReq+0x40>
 8004438:	f894 329c 	ldrb.w	r3, [r4, #668]	; 0x29c
 800443c:	3b01      	subs	r3, #1
 800443e:	2b02      	cmp	r3, #2
 8004440:	d810      	bhi.n	8004464 <USBD_StdItfReq+0x40>
 8004442:	792b      	ldrb	r3, [r5, #4]
 8004444:	2b02      	cmp	r3, #2
 8004446:	d80d      	bhi.n	8004464 <USBD_StdItfReq+0x40>
 8004448:	f8d4 32b4 	ldr.w	r3, [r4, #692]	; 0x2b4
 800444c:	4629      	mov	r1, r5
 800444e:	689b      	ldr	r3, [r3, #8]
 8004450:	4620      	mov	r0, r4
 8004452:	4798      	blx	r3
 8004454:	88eb      	ldrh	r3, [r5, #6]
 8004456:	b91b      	cbnz	r3, 8004460 <USBD_StdItfReq+0x3c>
 8004458:	b910      	cbnz	r0, 8004460 <USBD_StdItfReq+0x3c>
 800445a:	4620      	mov	r0, r4
 800445c:	f000 f8f5 	bl	800464a <USBD_CtlSendStatus>
 8004460:	2000      	movs	r0, #0
 8004462:	bd38      	pop	{r3, r4, r5, pc}
 8004464:	4620      	mov	r0, r4
 8004466:	f7ff fea8 	bl	80041ba <USBD_CtlError.constprop.0>
 800446a:	e7f9      	b.n	8004460 <USBD_StdItfReq+0x3c>

0800446c <USBD_StdEPReq>:
 800446c:	b538      	push	{r3, r4, r5, lr}
 800446e:	780a      	ldrb	r2, [r1, #0]
 8004470:	4604      	mov	r4, r0
 8004472:	f002 0260 	and.w	r2, r2, #96	; 0x60
 8004476:	2a20      	cmp	r2, #32
 8004478:	460b      	mov	r3, r1
 800447a:	d027      	beq.n	80044cc <USBD_StdEPReq+0x60>
 800447c:	2a40      	cmp	r2, #64	; 0x40
 800447e:	d025      	beq.n	80044cc <USBD_StdEPReq+0x60>
 8004480:	bb92      	cbnz	r2, 80044e8 <USBD_StdEPReq+0x7c>
 8004482:	785a      	ldrb	r2, [r3, #1]
 8004484:	888d      	ldrh	r5, [r1, #4]
 8004486:	2a01      	cmp	r2, #1
 8004488:	7909      	ldrb	r1, [r1, #4]
 800448a:	d03d      	beq.n	8004508 <USBD_StdEPReq+0x9c>
 800448c:	2a03      	cmp	r2, #3
 800448e:	d025      	beq.n	80044dc <USBD_StdEPReq+0x70>
 8004490:	bb52      	cbnz	r2, 80044e8 <USBD_StdEPReq+0x7c>
 8004492:	f890 329c 	ldrb.w	r3, [r0, #668]	; 0x29c
 8004496:	2b02      	cmp	r3, #2
 8004498:	d04d      	beq.n	8004536 <USBD_StdEPReq+0xca>
 800449a:	2b03      	cmp	r3, #3
 800449c:	d124      	bne.n	80044e8 <USBD_StdEPReq+0x7c>
 800449e:	2214      	movs	r2, #20
 80044a0:	f001 030f 	and.w	r3, r1, #15
 80044a4:	f015 0f80 	tst.w	r5, #128	; 0x80
 80044a8:	fb02 0303 	mla	r3, r2, r3, r0
 80044ac:	d054      	beq.n	8004558 <USBD_StdEPReq+0xec>
 80044ae:	699b      	ldr	r3, [r3, #24]
 80044b0:	b1d3      	cbz	r3, 80044e8 <USBD_StdEPReq+0x7c>
 80044b2:	2314      	movs	r3, #20
 80044b4:	f001 057f 	and.w	r5, r1, #127	; 0x7f
 80044b8:	fb05 3303 	mla	r3, r5, r3, r3
 80044bc:	18c5      	adds	r5, r0, r3
 80044be:	f011 037f 	ands.w	r3, r1, #127	; 0x7f
 80044c2:	d155      	bne.n	8004570 <USBD_StdEPReq+0x104>
 80044c4:	602b      	str	r3, [r5, #0]
 80044c6:	2202      	movs	r2, #2
 80044c8:	4629      	mov	r1, r5
 80044ca:	e041      	b.n	8004550 <USBD_StdEPReq+0xe4>
 80044cc:	f8d4 22b4 	ldr.w	r2, [r4, #692]	; 0x2b4
 80044d0:	4619      	mov	r1, r3
 80044d2:	4620      	mov	r0, r4
 80044d4:	6892      	ldr	r2, [r2, #8]
 80044d6:	4790      	blx	r2
 80044d8:	2000      	movs	r0, #0
 80044da:	bd38      	pop	{r3, r4, r5, pc}
 80044dc:	f890 229c 	ldrb.w	r2, [r0, #668]	; 0x29c
 80044e0:	2a02      	cmp	r2, #2
 80044e2:	d01f      	beq.n	8004524 <USBD_StdEPReq+0xb8>
 80044e4:	2a03      	cmp	r2, #3
 80044e6:	d003      	beq.n	80044f0 <USBD_StdEPReq+0x84>
 80044e8:	4620      	mov	r0, r4
 80044ea:	f7ff fe66 	bl	80041ba <USBD_CtlError.constprop.0>
 80044ee:	e7f3      	b.n	80044d8 <USBD_StdEPReq+0x6c>
 80044f0:	885a      	ldrh	r2, [r3, #2]
 80044f2:	b92a      	cbnz	r2, 8004500 <USBD_StdEPReq+0x94>
 80044f4:	064a      	lsls	r2, r1, #25
 80044f6:	d003      	beq.n	8004500 <USBD_StdEPReq+0x94>
 80044f8:	88db      	ldrh	r3, [r3, #6]
 80044fa:	b90b      	cbnz	r3, 8004500 <USBD_StdEPReq+0x94>
 80044fc:	f000 fa22 	bl	8004944 <USBD_LL_StallEP>
 8004500:	4620      	mov	r0, r4
 8004502:	f000 f8a2 	bl	800464a <USBD_CtlSendStatus>
 8004506:	e7e7      	b.n	80044d8 <USBD_StdEPReq+0x6c>
 8004508:	f890 229c 	ldrb.w	r2, [r0, #668]	; 0x29c
 800450c:	2a02      	cmp	r2, #2
 800450e:	d009      	beq.n	8004524 <USBD_StdEPReq+0xb8>
 8004510:	2a03      	cmp	r2, #3
 8004512:	d1e9      	bne.n	80044e8 <USBD_StdEPReq+0x7c>
 8004514:	885b      	ldrh	r3, [r3, #2]
 8004516:	2b00      	cmp	r3, #0
 8004518:	d1de      	bne.n	80044d8 <USBD_StdEPReq+0x6c>
 800451a:	064d      	lsls	r5, r1, #25
 800451c:	d0f0      	beq.n	8004500 <USBD_StdEPReq+0x94>
 800451e:	f000 fa1a 	bl	8004956 <USBD_LL_ClearStallEP>
 8004522:	e7ed      	b.n	8004500 <USBD_StdEPReq+0x94>
 8004524:	064b      	lsls	r3, r1, #25
 8004526:	d0df      	beq.n	80044e8 <USBD_StdEPReq+0x7c>
 8004528:	f000 fa0c 	bl	8004944 <USBD_LL_StallEP>
 800452c:	2180      	movs	r1, #128	; 0x80
 800452e:	4620      	mov	r0, r4
 8004530:	f000 fa08 	bl	8004944 <USBD_LL_StallEP>
 8004534:	e7d0      	b.n	80044d8 <USBD_StdEPReq+0x6c>
 8004536:	064a      	lsls	r2, r1, #25
 8004538:	d1d6      	bne.n	80044e8 <USBD_StdEPReq+0x7c>
 800453a:	062b      	lsls	r3, r5, #24
 800453c:	f04f 0300 	mov.w	r3, #0
 8004540:	f04f 0202 	mov.w	r2, #2
 8004544:	bf4c      	ite	mi
 8004546:	f100 0114 	addmi.w	r1, r0, #20
 800454a:	f500 71aa 	addpl.w	r1, r0, #340	; 0x154
 800454e:	600b      	str	r3, [r1, #0]
 8004550:	4620      	mov	r0, r4
 8004552:	f000 f850 	bl	80045f6 <USBD_CtlSendData>
 8004556:	e7bf      	b.n	80044d8 <USBD_StdEPReq+0x6c>
 8004558:	f8d3 3158 	ldr.w	r3, [r3, #344]	; 0x158
 800455c:	2b00      	cmp	r3, #0
 800455e:	d0c3      	beq.n	80044e8 <USBD_StdEPReq+0x7c>
 8004560:	2314      	movs	r3, #20
 8004562:	f001 057f 	and.w	r5, r1, #127	; 0x7f
 8004566:	fb03 0505 	mla	r5, r3, r5, r0
 800456a:	f505 75aa 	add.w	r5, r5, #340	; 0x154
 800456e:	e7a6      	b.n	80044be <USBD_StdEPReq+0x52>
 8004570:	4620      	mov	r0, r4
 8004572:	f000 f9f9 	bl	8004968 <USBD_LL_IsStallEP>
 8004576:	b108      	cbz	r0, 800457c <USBD_StdEPReq+0x110>
 8004578:	2301      	movs	r3, #1
 800457a:	e7a3      	b.n	80044c4 <USBD_StdEPReq+0x58>
 800457c:	6028      	str	r0, [r5, #0]
 800457e:	e7a2      	b.n	80044c6 <USBD_StdEPReq+0x5a>

08004580 <USBD_ParseSetupRequest>:
 8004580:	780b      	ldrb	r3, [r1, #0]
 8004582:	7003      	strb	r3, [r0, #0]
 8004584:	784b      	ldrb	r3, [r1, #1]
 8004586:	7043      	strb	r3, [r0, #1]
 8004588:	78ca      	ldrb	r2, [r1, #3]
 800458a:	788b      	ldrb	r3, [r1, #2]
 800458c:	eb03 2302 	add.w	r3, r3, r2, lsl #8
 8004590:	8043      	strh	r3, [r0, #2]
 8004592:	794a      	ldrb	r2, [r1, #5]
 8004594:	790b      	ldrb	r3, [r1, #4]
 8004596:	eb03 2302 	add.w	r3, r3, r2, lsl #8
 800459a:	8083      	strh	r3, [r0, #4]
 800459c:	79ca      	ldrb	r2, [r1, #7]
 800459e:	798b      	ldrb	r3, [r1, #6]
 80045a0:	eb03 2302 	add.w	r3, r3, r2, lsl #8
 80045a4:	80c3      	strh	r3, [r0, #6]
 80045a6:	4770      	bx	lr

080045a8 <USBD_CtlError>:
 80045a8:	b510      	push	{r4, lr}
 80045aa:	4604      	mov	r4, r0
 80045ac:	2180      	movs	r1, #128	; 0x80
 80045ae:	f000 f9c9 	bl	8004944 <USBD_LL_StallEP>
 80045b2:	4620      	mov	r0, r4
 80045b4:	e8bd 4010 	ldmia.w	sp!, {r4, lr}
 80045b8:	2100      	movs	r1, #0
 80045ba:	f000 b9c3 	b.w	8004944 <USBD_LL_StallEP>

080045be <USBD_GetString>:
 80045be:	b530      	push	{r4, r5, lr}
 80045c0:	b188      	cbz	r0, 80045e6 <USBD_GetString+0x28>
 80045c2:	2400      	movs	r4, #0
 80045c4:	3801      	subs	r0, #1
 80045c6:	4623      	mov	r3, r4
 80045c8:	3401      	adds	r4, #1
 80045ca:	5d05      	ldrb	r5, [r0, r4]
 80045cc:	2d00      	cmp	r5, #0
 80045ce:	d1fa      	bne.n	80045c6 <USBD_GetString+0x8>
 80045d0:	b2db      	uxtb	r3, r3
 80045d2:	3301      	adds	r3, #1
 80045d4:	005b      	lsls	r3, r3, #1
 80045d6:	8013      	strh	r3, [r2, #0]
 80045d8:	700b      	strb	r3, [r1, #0]
 80045da:	2303      	movs	r3, #3
 80045dc:	704b      	strb	r3, [r1, #1]
 80045de:	2302      	movs	r3, #2
 80045e0:	f810 4f01 	ldrb.w	r4, [r0, #1]!
 80045e4:	b904      	cbnz	r4, 80045e8 <USBD_GetString+0x2a>
 80045e6:	bd30      	pop	{r4, r5, pc}
 80045e8:	1c5a      	adds	r2, r3, #1
 80045ea:	54cc      	strb	r4, [r1, r3]
 80045ec:	b2d2      	uxtb	r2, r2
 80045ee:	3302      	adds	r3, #2
 80045f0:	b2db      	uxtb	r3, r3
 80045f2:	548d      	strb	r5, [r1, r2]
 80045f4:	e7f4      	b.n	80045e0 <USBD_GetString+0x22>

080045f6 <USBD_CtlSendData>:
 80045f6:	4613      	mov	r3, r2
 80045f8:	2202      	movs	r2, #2
 80045fa:	b510      	push	{r4, lr}
 80045fc:	e9c0 3307 	strd	r3, r3, [r0, #28]
 8004600:	f8c0 2294 	str.w	r2, [r0, #660]	; 0x294
 8004604:	460a      	mov	r2, r1
 8004606:	2100      	movs	r1, #0
 8004608:	f000 f9c9 	bl	800499e <USBD_LL_Transmit>
 800460c:	2000      	movs	r0, #0
 800460e:	bd10      	pop	{r4, pc}

08004610 <USBD_CtlContinueSendData>:
 8004610:	b508      	push	{r3, lr}
 8004612:	4613      	mov	r3, r2
 8004614:	460a      	mov	r2, r1
 8004616:	2100      	movs	r1, #0
 8004618:	f000 f9c1 	bl	800499e <USBD_LL_Transmit>
 800461c:	2000      	movs	r0, #0
 800461e:	bd08      	pop	{r3, pc}

08004620 <USBD_CtlPrepareRx>:
 8004620:	4613      	mov	r3, r2
 8004622:	2203      	movs	r2, #3
 8004624:	b510      	push	{r4, lr}
 8004626:	e9c0 3357 	strd	r3, r3, [r0, #348]	; 0x15c
 800462a:	f8c0 2294 	str.w	r2, [r0, #660]	; 0x294
 800462e:	460a      	mov	r2, r1
 8004630:	2100      	movs	r1, #0
 8004632:	f000 f9bd 	bl	80049b0 <USBD_LL_PrepareReceive>
 8004636:	2000      	movs	r0, #0
 8004638:	bd10      	pop	{r4, pc}

0800463a <USBD_CtlContinueRx>:
 800463a:	b508      	push	{r3, lr}
 800463c:	4613      	mov	r3, r2
 800463e:	460a      	mov	r2, r1
 8004640:	2100      	movs	r1, #0
 8004642:	f000 f9b5 	bl	80049b0 <USBD_LL_PrepareReceive>
 8004646:	2000      	movs	r0, #0
 8004648:	bd08      	pop	{r3, pc}

0800464a <USBD_CtlSendStatus>:
 800464a:	b508      	push	{r3, lr}
 800464c:	2304      	movs	r3, #4
 800464e:	f8c0 3294 	str.w	r3, [r0, #660]	; 0x294
 8004652:	2300      	movs	r3, #0
 8004654:	461a      	mov	r2, r3
 8004656:	4619      	mov	r1, r3
 8004658:	f000 f9a1 	bl	800499e <USBD_LL_Transmit>
 800465c:	2000      	movs	r0, #0
 800465e:	bd08      	pop	{r3, pc}

08004660 <USBD_CtlReceiveStatus>:
 8004660:	b508      	push	{r3, lr}
 8004662:	2305      	movs	r3, #5
 8004664:	f8c0 3294 	str.w	r3, [r0, #660]	; 0x294
 8004668:	2300      	movs	r3, #0
 800466a:	461a      	mov	r2, r3
 800466c:	4619      	mov	r1, r3
 800466e:	f000 f99f 	bl	80049b0 <USBD_LL_PrepareReceive>
 8004672:	2000      	movs	r0, #0
 8004674:	bd08      	pop	{r3, pc}
	...

08004678 <MX_USB_DEVICE_Init>:
 8004678:	b508      	push	{r3, lr}
 800467a:	2200      	movs	r2, #0
 800467c:	490e      	ldr	r1, [pc, #56]	; (80046b8 <MX_USB_DEVICE_Init+0x40>)
 800467e:	480f      	ldr	r0, [pc, #60]	; (80046bc <MX_USB_DEVICE_Init+0x44>)
 8004680:	f7ff fc5d 	bl	8003f3e <USBD_Init>
 8004684:	b108      	cbz	r0, 800468a <MX_USB_DEVICE_Init+0x12>
 8004686:	f7fc f999 	bl	80009bc <Error_Handler>
 800468a:	490d      	ldr	r1, [pc, #52]	; (80046c0 <MX_USB_DEVICE_Init+0x48>)
 800468c:	480b      	ldr	r0, [pc, #44]	; (80046bc <MX_USB_DEVICE_Init+0x44>)
 800468e:	f7ff fc6b 	bl	8003f68 <USBD_RegisterClass>
 8004692:	b108      	cbz	r0, 8004698 <MX_USB_DEVICE_Init+0x20>
 8004694:	f7fc f992 	bl	80009bc <Error_Handler>
 8004698:	490a      	ldr	r1, [pc, #40]	; (80046c4 <MX_USB_DEVICE_Init+0x4c>)
 800469a:	4808      	ldr	r0, [pc, #32]	; (80046bc <MX_USB_DEVICE_Init+0x44>)
 800469c:	f7ff fc48 	bl	8003f30 <USBD_CUSTOM_HID_RegisterInterface>
 80046a0:	b108      	cbz	r0, 80046a6 <MX_USB_DEVICE_Init+0x2e>
 80046a2:	f7fc f98b 	bl	80009bc <Error_Handler>
 80046a6:	4805      	ldr	r0, [pc, #20]	; (80046bc <MX_USB_DEVICE_Init+0x44>)
 80046a8:	f7ff fc65 	bl	8003f76 <USBD_Start>
 80046ac:	b118      	cbz	r0, 80046b6 <MX_USB_DEVICE_Init+0x3e>
 80046ae:	e8bd 4008 	ldmia.w	sp!, {r3, lr}
 80046b2:	f7fc b983 	b.w	80009bc <Error_Handler>
 80046b6:	bd08      	pop	{r3, pc}
 80046b8:	20000110 	.word	0x20000110
 80046bc:	20000670 	.word	0x20000670
 80046c0:	2000000c 	.word	0x2000000c
 80046c4:	20000100 	.word	0x20000100

080046c8 <CUSTOM_HID_Init_FS>:
 80046c8:	2000      	movs	r0, #0
 80046ca:	4770      	bx	lr

080046cc <CUSTOM_HID_OutEvent_FS>:
 80046cc:	2000      	movs	r0, #0
 80046ce:	4770      	bx	lr

080046d0 <CUSTOM_HID_DeInit_FS>:
 80046d0:	2000      	movs	r0, #0
 80046d2:	4770      	bx	lr

080046d4 <USBD_FS_DeviceDescriptor>:
 80046d4:	2312      	movs	r3, #18
 80046d6:	4801      	ldr	r0, [pc, #4]	; (80046dc <USBD_FS_DeviceDescriptor+0x8>)
 80046d8:	800b      	strh	r3, [r1, #0]
 80046da:	4770      	bx	lr
 80046dc:	2000012c 	.word	0x2000012c

080046e0 <USBD_FS_LangIDStrDescriptor>:
 80046e0:	2304      	movs	r3, #4
 80046e2:	4801      	ldr	r0, [pc, #4]	; (80046e8 <USBD_FS_LangIDStrDescriptor+0x8>)
 80046e4:	800b      	strh	r3, [r1, #0]
 80046e6:	4770      	bx	lr
 80046e8:	20000140 	.word	0x20000140

080046ec <IntToUnicode>:
 80046ec:	2300      	movs	r3, #0
 80046ee:	b570      	push	{r4, r5, r6, lr}
 80046f0:	461e      	mov	r6, r3
 80046f2:	1c4d      	adds	r5, r1, #1
 80046f4:	0f04      	lsrs	r4, r0, #28
 80046f6:	f1b0 4f20 	cmp.w	r0, #2684354560	; 0xa0000000
 80046fa:	bf34      	ite	cc
 80046fc:	3430      	addcc	r4, #48	; 0x30
 80046fe:	3437      	addcs	r4, #55	; 0x37
 8004700:	f801 4013 	strb.w	r4, [r1, r3, lsl #1]
 8004704:	f805 6013 	strb.w	r6, [r5, r3, lsl #1]
 8004708:	3301      	adds	r3, #1
 800470a:	b2dc      	uxtb	r4, r3
 800470c:	42a2      	cmp	r2, r4
 800470e:	ea4f 1000 	mov.w	r0, r0, lsl #4
 8004712:	d8ef      	bhi.n	80046f4 <IntToUnicode+0x8>
 8004714:	bd70      	pop	{r4, r5, r6, pc}
	...

08004718 <USBD_FS_SerialStrDescriptor>:
 8004718:	231a      	movs	r3, #26
 800471a:	b510      	push	{r4, lr}
 800471c:	800b      	strh	r3, [r1, #0]
 800471e:	4b0a      	ldr	r3, [pc, #40]	; (8004748 <USBD_FS_SerialStrDescriptor+0x30>)
 8004720:	f8d3 07e8 	ldr.w	r0, [r3, #2024]	; 0x7e8
 8004724:	f8d3 27f0 	ldr.w	r2, [r3, #2032]	; 0x7f0
 8004728:	1880      	adds	r0, r0, r2
 800472a:	d00a      	beq.n	8004742 <USBD_FS_SerialStrDescriptor+0x2a>
 800472c:	f8d3 47ec 	ldr.w	r4, [r3, #2028]	; 0x7ec
 8004730:	4906      	ldr	r1, [pc, #24]	; (800474c <USBD_FS_SerialStrDescriptor+0x34>)
 8004732:	2208      	movs	r2, #8
 8004734:	f7ff ffda 	bl	80046ec <IntToUnicode>
 8004738:	2204      	movs	r2, #4
 800473a:	4620      	mov	r0, r4
 800473c:	3110      	adds	r1, #16
 800473e:	f7ff ffd5 	bl	80046ec <IntToUnicode>
 8004742:	4803      	ldr	r0, [pc, #12]	; (8004750 <USBD_FS_SerialStrDescriptor+0x38>)
 8004744:	bd10      	pop	{r4, pc}
 8004746:	bf00      	nop
 8004748:	1ffff000 	.word	0x1ffff000
 800474c:	20000146 	.word	0x20000146
 8004750:	20000144 	.word	0x20000144

08004754 <USBD_FS_ManufacturerStrDescriptor>:
 8004754:	b510      	push	{r4, lr}
 8004756:	4c04      	ldr	r4, [pc, #16]	; (8004768 <USBD_FS_ManufacturerStrDescriptor+0x14>)
 8004758:	460a      	mov	r2, r1
 800475a:	4804      	ldr	r0, [pc, #16]	; (800476c <USBD_FS_ManufacturerStrDescriptor+0x18>)
 800475c:	4621      	mov	r1, r4
 800475e:	f7ff ff2e 	bl	80045be <USBD_GetString>
 8004762:	4620      	mov	r0, r4
 8004764:	bd10      	pop	{r4, pc}
 8004766:	bf00      	nop
 8004768:	20000934 	.word	0x20000934
 800476c:	08004c2c 	.word	0x08004c2c

08004770 <USBD_FS_ProductStrDescriptor>:
 8004770:	b510      	push	{r4, lr}
 8004772:	4c04      	ldr	r4, [pc, #16]	; (8004784 <USBD_FS_ProductStrDescriptor+0x14>)
 8004774:	460a      	mov	r2, r1
 8004776:	4804      	ldr	r0, [pc, #16]	; (8004788 <USBD_FS_ProductStrDescriptor+0x18>)
 8004778:	4621      	mov	r1, r4
 800477a:	f7ff ff20 	bl	80045be <USBD_GetString>
 800477e:	4620      	mov	r0, r4
 8004780:	bd10      	pop	{r4, pc}
 8004782:	bf00      	nop
 8004784:	20000934 	.word	0x20000934
 8004788:	08004c3e 	.word	0x08004c3e

0800478c <USBD_FS_ConfigStrDescriptor>:
 800478c:	b510      	push	{r4, lr}
 800478e:	4c04      	ldr	r4, [pc, #16]	; (80047a0 <USBD_FS_ConfigStrDescriptor+0x14>)
 8004790:	460a      	mov	r2, r1
 8004792:	4804      	ldr	r0, [pc, #16]	; (80047a4 <USBD_FS_ConfigStrDescriptor+0x18>)
 8004794:	4621      	mov	r1, r4
 8004796:	f7ff ff12 	bl	80045be <USBD_GetString>
 800479a:	4620      	mov	r0, r4
 800479c:	bd10      	pop	{r4, pc}
 800479e:	bf00      	nop
 80047a0:	20000934 	.word	0x20000934
 80047a4:	08004c4d 	.word	0x08004c4d

080047a8 <USBD_FS_InterfaceStrDescriptor>:
 80047a8:	b510      	push	{r4, lr}
 80047aa:	4c04      	ldr	r4, [pc, #16]	; (80047bc <USBD_FS_InterfaceStrDescriptor+0x14>)
 80047ac:	460a      	mov	r2, r1
 80047ae:	4804      	ldr	r0, [pc, #16]	; (80047c0 <USBD_FS_InterfaceStrDescriptor+0x18>)
 80047b0:	4621      	mov	r1, r4
 80047b2:	f7ff ff04 	bl	80045be <USBD_GetString>
 80047b6:	4620      	mov	r0, r4
 80047b8:	bd10      	pop	{r4, pc}
 80047ba:	bf00      	nop
 80047bc:	20000934 	.word	0x20000934
 80047c0:	08004c56 	.word	0x08004c56

080047c4 <USBD_Get_USB_Status>:
 80047c4:	2803      	cmp	r0, #3
 80047c6:	bf9a      	itte	ls
 80047c8:	4b01      	ldrls	r3, [pc, #4]	; (80047d0 <USBD_Get_USB_Status+0xc>)
 80047ca:	5c18      	ldrbls	r0, [r3, r0]
 80047cc:	2002      	movhi	r0, #2
 80047ce:	4770      	bx	lr
 80047d0:	08004c5f 	.word	0x08004c5f

080047d4 <HAL_PCD_MspInit>:
 80047d4:	b507      	push	{r0, r1, r2, lr}
 80047d6:	4b0e      	ldr	r3, [pc, #56]	; (8004810 <HAL_PCD_MspInit+0x3c>)
 80047d8:	6802      	ldr	r2, [r0, #0]
 80047da:	429a      	cmp	r2, r3
 80047dc:	d115      	bne.n	800480a <HAL_PCD_MspInit+0x36>
 80047de:	f503 33da 	add.w	r3, r3, #111616	; 0x1b400
 80047e2:	69da      	ldr	r2, [r3, #28]
 80047e4:	2014      	movs	r0, #20
 80047e6:	f442 0200 	orr.w	r2, r2, #8388608	; 0x800000
 80047ea:	61da      	str	r2, [r3, #28]
 80047ec:	2200      	movs	r2, #0
 80047ee:	69db      	ldr	r3, [r3, #28]
 80047f0:	4611      	mov	r1, r2
 80047f2:	f403 0300 	and.w	r3, r3, #8388608	; 0x800000
 80047f6:	9301      	str	r3, [sp, #4]
 80047f8:	9b01      	ldr	r3, [sp, #4]
 80047fa:	f7fc fd49 	bl	8001290 <HAL_NVIC_SetPriority>
 80047fe:	2014      	movs	r0, #20
 8004800:	b003      	add	sp, #12
 8004802:	f85d eb04 	ldr.w	lr, [sp], #4
 8004806:	f7fc bd75 	b.w	80012f4 <HAL_NVIC_EnableIRQ>
 800480a:	b003      	add	sp, #12
 800480c:	f85d fb04 	ldr.w	pc, [sp], #4
 8004810:	40005c00 	.word	0x40005c00

08004814 <HAL_PCD_SetupStageCallback>:
 8004814:	f500 712c 	add.w	r1, r0, #688	; 0x2b0
 8004818:	f8d0 02ec 	ldr.w	r0, [r0, #748]	; 0x2ec
 800481c:	f7ff bbc2 	b.w	8003fa4 <USBD_LL_SetupStage>

08004820 <HAL_PCD_DataOutStageCallback>:
 8004820:	2328      	movs	r3, #40	; 0x28
 8004822:	fb03 0301 	mla	r3, r3, r1, r0
 8004826:	f8d0 02ec 	ldr.w	r0, [r0, #748]	; 0x2ec
 800482a:	f8d3 217c 	ldr.w	r2, [r3, #380]	; 0x17c
 800482e:	f7ff bbe6 	b.w	8003ffe <USBD_LL_DataOutStage>

08004832 <HAL_PCD_DataInStageCallback>:
 8004832:	2328      	movs	r3, #40	; 0x28
 8004834:	fb03 0301 	mla	r3, r3, r1, r0
 8004838:	f8d0 02ec 	ldr.w	r0, [r0, #748]	; 0x2ec
 800483c:	6bda      	ldr	r2, [r3, #60]	; 0x3c
 800483e:	f7ff bc18 	b.w	8004072 <USBD_LL_DataInStage>

08004842 <HAL_PCD_SOFCallback>:
 8004842:	f8d0 02ec 	ldr.w	r0, [r0, #748]	; 0x2ec
 8004846:	f7ff bcac 	b.w	80041a2 <USBD_LL_SOF>

0800484a <HAL_PCD_ResetCallback>:
 800484a:	6883      	ldr	r3, [r0, #8]
 800484c:	b510      	push	{r4, lr}
 800484e:	2b02      	cmp	r3, #2
 8004850:	4604      	mov	r4, r0
 8004852:	d001      	beq.n	8004858 <HAL_PCD_ResetCallback+0xe>
 8004854:	f7fc f8b2 	bl	80009bc <Error_Handler>
 8004858:	f8d4 02ec 	ldr.w	r0, [r4, #748]	; 0x2ec
 800485c:	2101      	movs	r1, #1
 800485e:	f7ff fc8a 	bl	8004176 <USBD_LL_SetSpeed>
 8004862:	f8d4 02ec 	ldr.w	r0, [r4, #748]	; 0x2ec
 8004866:	e8bd 4010 	ldmia.w	sp!, {r4, lr}
 800486a:	f7ff bc5d 	b.w	8004128 <USBD_LL_Reset>
	...

08004870 <HAL_PCD_SuspendCallback>:
 8004870:	b510      	push	{r4, lr}
 8004872:	4604      	mov	r4, r0
 8004874:	f8d0 02ec 	ldr.w	r0, [r0, #748]	; 0x2ec
 8004878:	f7ff fc80 	bl	800417c <USBD_LL_Suspend>
 800487c:	69a3      	ldr	r3, [r4, #24]
 800487e:	b123      	cbz	r3, 800488a <HAL_PCD_SuspendCallback+0x1a>
 8004880:	4a02      	ldr	r2, [pc, #8]	; (800488c <HAL_PCD_SuspendCallback+0x1c>)
 8004882:	6913      	ldr	r3, [r2, #16]
 8004884:	f043 0306 	orr.w	r3, r3, #6
 8004888:	6113      	str	r3, [r2, #16]
 800488a:	bd10      	pop	{r4, pc}
 800488c:	e000ed00 	.word	0xe000ed00

08004890 <HAL_PCD_ResumeCallback>:
 8004890:	f8d0 02ec 	ldr.w	r0, [r0, #748]	; 0x2ec
 8004894:	f7ff bc7b 	b.w	800418e <USBD_LL_Resume>

08004898 <USBD_LL_Init>:
 8004898:	2308      	movs	r3, #8
 800489a:	b510      	push	{r4, lr}
 800489c:	4a18      	ldr	r2, [pc, #96]	; (8004900 <USBD_LL_Init+0x68>)
 800489e:	4604      	mov	r4, r0
 80048a0:	4818      	ldr	r0, [pc, #96]	; (8004904 <USBD_LL_Init+0x6c>)
 80048a2:	e9c0 2300 	strd	r2, r3, [r0]
 80048a6:	2302      	movs	r3, #2
 80048a8:	6083      	str	r3, [r0, #8]
 80048aa:	2300      	movs	r3, #0
 80048ac:	f8c0 42ec 	str.w	r4, [r0, #748]	; 0x2ec
 80048b0:	f8c4 02c0 	str.w	r0, [r4, #704]	; 0x2c0
 80048b4:	e9c0 3306 	strd	r3, r3, [r0, #24]
 80048b8:	6203      	str	r3, [r0, #32]
 80048ba:	f7fc ff5d 	bl	8001778 <HAL_PCD_Init>
 80048be:	b108      	cbz	r0, 80048c4 <USBD_LL_Init+0x2c>
 80048c0:	f7fc f87c 	bl	80009bc <Error_Handler>
 80048c4:	2200      	movs	r2, #0
 80048c6:	2318      	movs	r3, #24
 80048c8:	4611      	mov	r1, r2
 80048ca:	f8d4 02c0 	ldr.w	r0, [r4, #704]	; 0x2c0
 80048ce:	f7fd fdc4 	bl	800245a <HAL_PCDEx_PMAConfig>
 80048d2:	2358      	movs	r3, #88	; 0x58
 80048d4:	2200      	movs	r2, #0
 80048d6:	2180      	movs	r1, #128	; 0x80
 80048d8:	f8d4 02c0 	ldr.w	r0, [r4, #704]	; 0x2c0
 80048dc:	f7fd fdbd 	bl	800245a <HAL_PCDEx_PMAConfig>
 80048e0:	2398      	movs	r3, #152	; 0x98
 80048e2:	2200      	movs	r2, #0
 80048e4:	2181      	movs	r1, #129	; 0x81
 80048e6:	f8d4 02c0 	ldr.w	r0, [r4, #704]	; 0x2c0
 80048ea:	f7fd fdb6 	bl	800245a <HAL_PCDEx_PMAConfig>
 80048ee:	23d8      	movs	r3, #216	; 0xd8
 80048f0:	2200      	movs	r2, #0
 80048f2:	2101      	movs	r1, #1
 80048f4:	f8d4 02c0 	ldr.w	r0, [r4, #704]	; 0x2c0
 80048f8:	f7fd fdaf 	bl	800245a <HAL_PCDEx_PMAConfig>
 80048fc:	2000      	movs	r0, #0
 80048fe:	bd10      	pop	{r4, pc}
 8004900:	40005c00 	.word	0x40005c00
 8004904:	20000b34 	.word	0x20000b34

08004908 <USBD_LL_Start>:
 8004908:	b508      	push	{r3, lr}
 800490a:	f8d0 02c0 	ldr.w	r0, [r0, #704]	; 0x2c0
 800490e:	f7fc ffab 	bl	8001868 <HAL_PCD_Start>
 8004912:	e8bd 4008 	ldmia.w	sp!, {r3, lr}
 8004916:	f7ff bf55 	b.w	80047c4 <USBD_Get_USB_Status>

0800491a <USBD_LL_OpenEP>:
 800491a:	b510      	push	{r4, lr}
 800491c:	4614      	mov	r4, r2
 800491e:	f8d0 02c0 	ldr.w	r0, [r0, #704]	; 0x2c0
 8004922:	461a      	mov	r2, r3
 8004924:	4623      	mov	r3, r4
 8004926:	f7fd fcab 	bl	8002280 <HAL_PCD_EP_Open>
 800492a:	e8bd 4010 	ldmia.w	sp!, {r4, lr}
 800492e:	f7ff bf49 	b.w	80047c4 <USBD_Get_USB_Status>

08004932 <USBD_LL_CloseEP>:
 8004932:	b508      	push	{r3, lr}
 8004934:	f8d0 02c0 	ldr.w	r0, [r0, #704]	; 0x2c0
 8004938:	f7fd fcd1 	bl	80022de <HAL_PCD_EP_Close>
 800493c:	e8bd 4008 	ldmia.w	sp!, {r3, lr}
 8004940:	f7ff bf40 	b.w	80047c4 <USBD_Get_USB_Status>

08004944 <USBD_LL_StallEP>:
 8004944:	b508      	push	{r3, lr}
 8004946:	f8d0 02c0 	ldr.w	r0, [r0, #704]	; 0x2c0
 800494a:	f7fd fd21 	bl	8002390 <HAL_PCD_EP_SetStall>
 800494e:	e8bd 4008 	ldmia.w	sp!, {r3, lr}
 8004952:	f7ff bf37 	b.w	80047c4 <USBD_Get_USB_Status>

08004956 <USBD_LL_ClearStallEP>:
 8004956:	b508      	push	{r3, lr}
 8004958:	f8d0 02c0 	ldr.w	r0, [r0, #704]	; 0x2c0
 800495c:	f7fd fd4c 	bl	80023f8 <HAL_PCD_EP_ClrStall>
 8004960:	e8bd 4008 	ldmia.w	sp!, {r3, lr}
 8004964:	f7ff bf2e 	b.w	80047c4 <USBD_Get_USB_Status>

08004968 <USBD_LL_IsStallEP>:
 8004968:	2228      	movs	r2, #40	; 0x28
 800496a:	f011 0f80 	tst.w	r1, #128	; 0x80
 800496e:	f8d0 32c0 	ldr.w	r3, [r0, #704]	; 0x2c0
 8004972:	bf1b      	ittet	ne
 8004974:	f001 017f 	andne.w	r1, r1, #127	; 0x7f
 8004978:	fb01 2102 	mlane	r1, r1, r2, r2
 800497c:	fb02 3101 	mlaeq	r1, r2, r1, r3
 8004980:	185b      	addne	r3, r3, r1
 8004982:	bf14      	ite	ne
 8004984:	7898      	ldrbne	r0, [r3, #2]
 8004986:	f891 016a 	ldrbeq.w	r0, [r1, #362]	; 0x16a
 800498a:	4770      	bx	lr

0800498c <USBD_LL_SetUSBAddress>:
 800498c:	b508      	push	{r3, lr}
 800498e:	f8d0 02c0 	ldr.w	r0, [r0, #704]	; 0x2c0
 8004992:	f7fc ff82 	bl	800189a <HAL_PCD_SetAddress>
 8004996:	e8bd 4008 	ldmia.w	sp!, {r3, lr}
 800499a:	f7ff bf13 	b.w	80047c4 <USBD_Get_USB_Status>

0800499e <USBD_LL_Transmit>:
 800499e:	b508      	push	{r3, lr}
 80049a0:	f8d0 02c0 	ldr.w	r0, [r0, #704]	; 0x2c0
 80049a4:	f7fd fcda 	bl	800235c <HAL_PCD_EP_Transmit>
 80049a8:	e8bd 4008 	ldmia.w	sp!, {r3, lr}
 80049ac:	f7ff bf0a 	b.w	80047c4 <USBD_Get_USB_Status>

080049b0 <USBD_LL_PrepareReceive>:
 80049b0:	b508      	push	{r3, lr}
 80049b2:	f8d0 02c0 	ldr.w	r0, [r0, #704]	; 0x2c0
 80049b6:	f7fd fcba 	bl	800232e <HAL_PCD_EP_Receive>
 80049ba:	e8bd 4008 	ldmia.w	sp!, {r3, lr}
 80049be:	f7ff bf01 	b.w	80047c4 <USBD_Get_USB_Status>
	...

080049c4 <USBD_static_malloc>:
 80049c4:	4800      	ldr	r0, [pc, #0]	; (80049c8 <USBD_static_malloc+0x4>)
 80049c6:	4770      	bx	lr
 80049c8:	20000e24 	.word	0x20000e24

080049cc <USBD_static_free>:
 80049cc:	4770      	bx	lr

080049ce <HAL_PCDEx_SetConnectionState>:
 80049ce:	4770      	bx	lr

080049d0 <__errno>:
 80049d0:	4b01      	ldr	r3, [pc, #4]	; (80049d8 <__errno+0x8>)
 80049d2:	6818      	ldr	r0, [r3, #0]
 80049d4:	4770      	bx	lr
 80049d6:	bf00      	nop
 80049d8:	20000160 	.word	0x20000160

080049dc <__libc_init_array>:
 80049dc:	b570      	push	{r4, r5, r6, lr}
 80049de:	2600      	movs	r6, #0
 80049e0:	4d0c      	ldr	r5, [pc, #48]	; (8004a14 <__libc_init_array+0x38>)
 80049e2:	4c0d      	ldr	r4, [pc, #52]	; (8004a18 <__libc_init_array+0x3c>)
 80049e4:	1b64      	subs	r4, r4, r5
 80049e6:	10a4      	asrs	r4, r4, #2
 80049e8:	42a6      	cmp	r6, r4
 80049ea:	d109      	bne.n	8004a00 <__libc_init_array+0x24>
 80049ec:	f000 f8fa 	bl	8004be4 <_init>
 80049f0:	2600      	movs	r6, #0
 80049f2:	4d0a      	ldr	r5, [pc, #40]	; (8004a1c <__libc_init_array+0x40>)
 80049f4:	4c0a      	ldr	r4, [pc, #40]	; (8004a20 <__libc_init_array+0x44>)
 80049f6:	1b64      	subs	r4, r4, r5
 80049f8:	10a4      	asrs	r4, r4, #2
 80049fa:	42a6      	cmp	r6, r4
 80049fc:	d105      	bne.n	8004a0a <__libc_init_array+0x2e>
 80049fe:	bd70      	pop	{r4, r5, r6, pc}
 8004a00:	f855 3b04 	ldr.w	r3, [r5], #4
 8004a04:	4798      	blx	r3
 8004a06:	3601      	adds	r6, #1
 8004a08:	e7ee      	b.n	80049e8 <__libc_init_array+0xc>
 8004a0a:	f855 3b04 	ldr.w	r3, [r5], #4
 8004a0e:	4798      	blx	r3
 8004a10:	3601      	adds	r6, #1
 8004a12:	e7f2      	b.n	80049fa <__libc_init_array+0x1e>
 8004a14:	08004c64 	.word	0x08004c64
 8004a18:	08004c64 	.word	0x08004c64
 8004a1c:	08004c64 	.word	0x08004c64
 8004a20:	08004c68 	.word	0x08004c68

08004a24 <malloc>:
 8004a24:	4b02      	ldr	r3, [pc, #8]	; (8004a30 <malloc+0xc>)
 8004a26:	4601      	mov	r1, r0
 8004a28:	6818      	ldr	r0, [r3, #0]
 8004a2a:	f000 b849 	b.w	8004ac0 <_malloc_r>
 8004a2e:	bf00      	nop
 8004a30:	20000160 	.word	0x20000160

08004a34 <memcmp>:
 8004a34:	b510      	push	{r4, lr}
 8004a36:	3901      	subs	r1, #1
 8004a38:	4402      	add	r2, r0
 8004a3a:	4290      	cmp	r0, r2
 8004a3c:	d101      	bne.n	8004a42 <memcmp+0xe>
 8004a3e:	2000      	movs	r0, #0
 8004a40:	e005      	b.n	8004a4e <memcmp+0x1a>
 8004a42:	7803      	ldrb	r3, [r0, #0]
 8004a44:	f811 4f01 	ldrb.w	r4, [r1, #1]!
 8004a48:	42a3      	cmp	r3, r4
 8004a4a:	d001      	beq.n	8004a50 <memcmp+0x1c>
 8004a4c:	1b18      	subs	r0, r3, r4
 8004a4e:	bd10      	pop	{r4, pc}
 8004a50:	3001      	adds	r0, #1
 8004a52:	e7f2      	b.n	8004a3a <memcmp+0x6>

08004a54 <memcpy>:
 8004a54:	440a      	add	r2, r1
 8004a56:	4291      	cmp	r1, r2
 8004a58:	f100 33ff 	add.w	r3, r0, #4294967295
 8004a5c:	d100      	bne.n	8004a60 <memcpy+0xc>
 8004a5e:	4770      	bx	lr
 8004a60:	b510      	push	{r4, lr}
 8004a62:	f811 4b01 	ldrb.w	r4, [r1], #1
 8004a66:	4291      	cmp	r1, r2
 8004a68:	f803 4f01 	strb.w	r4, [r3, #1]!
 8004a6c:	d1f9      	bne.n	8004a62 <memcpy+0xe>
 8004a6e:	bd10      	pop	{r4, pc}

08004a70 <memset>:
 8004a70:	4603      	mov	r3, r0
 8004a72:	4402      	add	r2, r0
 8004a74:	4293      	cmp	r3, r2
 8004a76:	d100      	bne.n	8004a7a <memset+0xa>
 8004a78:	4770      	bx	lr
 8004a7a:	f803 1b01 	strb.w	r1, [r3], #1
 8004a7e:	e7f9      	b.n	8004a74 <memset+0x4>

08004a80 <sbrk_aligned>:
 8004a80:	b570      	push	{r4, r5, r6, lr}
 8004a82:	4e0e      	ldr	r6, [pc, #56]	; (8004abc <sbrk_aligned+0x3c>)
 8004a84:	460c      	mov	r4, r1
 8004a86:	6831      	ldr	r1, [r6, #0]
 8004a88:	4605      	mov	r5, r0
 8004a8a:	b911      	cbnz	r1, 8004a92 <sbrk_aligned+0x12>
 8004a8c:	f000 f88c 	bl	8004ba8 <_sbrk_r>
 8004a90:	6030      	str	r0, [r6, #0]
 8004a92:	4621      	mov	r1, r4
 8004a94:	4628      	mov	r0, r5
 8004a96:	f000 f887 	bl	8004ba8 <_sbrk_r>
 8004a9a:	1c43      	adds	r3, r0, #1
 8004a9c:	d00a      	beq.n	8004ab4 <sbrk_aligned+0x34>
 8004a9e:	1cc4      	adds	r4, r0, #3
 8004aa0:	f024 0403 	bic.w	r4, r4, #3
 8004aa4:	42a0      	cmp	r0, r4
 8004aa6:	d007      	beq.n	8004ab8 <sbrk_aligned+0x38>
 8004aa8:	1a21      	subs	r1, r4, r0
 8004aaa:	4628      	mov	r0, r5
 8004aac:	f000 f87c 	bl	8004ba8 <_sbrk_r>
 8004ab0:	3001      	adds	r0, #1
 8004ab2:	d101      	bne.n	8004ab8 <sbrk_aligned+0x38>
 8004ab4:	f04f 34ff 	mov.w	r4, #4294967295
 8004ab8:	4620      	mov	r0, r4
 8004aba:	bd70      	pop	{r4, r5, r6, pc}
 8004abc:	20000e44 	.word	0x20000e44

08004ac0 <_malloc_r>:
 8004ac0:	e92d 41f0 	stmdb	sp!, {r4, r5, r6, r7, r8, lr}
 8004ac4:	1ccd      	adds	r5, r1, #3
 8004ac6:	f025 0503 	bic.w	r5, r5, #3
 8004aca:	3508      	adds	r5, #8
 8004acc:	2d0c      	cmp	r5, #12
 8004ace:	bf38      	it	cc
 8004ad0:	250c      	movcc	r5, #12
 8004ad2:	2d00      	cmp	r5, #0
 8004ad4:	4607      	mov	r7, r0
 8004ad6:	db01      	blt.n	8004adc <_malloc_r+0x1c>
 8004ad8:	42a9      	cmp	r1, r5
 8004ada:	d905      	bls.n	8004ae8 <_malloc_r+0x28>
 8004adc:	230c      	movs	r3, #12
 8004ade:	2600      	movs	r6, #0
 8004ae0:	603b      	str	r3, [r7, #0]
 8004ae2:	4630      	mov	r0, r6
 8004ae4:	e8bd 81f0 	ldmia.w	sp!, {r4, r5, r6, r7, r8, pc}
 8004ae8:	4e2e      	ldr	r6, [pc, #184]	; (8004ba4 <_malloc_r+0xe4>)
 8004aea:	f000 f86d 	bl	8004bc8 <__malloc_lock>
 8004aee:	6833      	ldr	r3, [r6, #0]
 8004af0:	461c      	mov	r4, r3
 8004af2:	bb34      	cbnz	r4, 8004b42 <_malloc_r+0x82>
 8004af4:	4629      	mov	r1, r5
 8004af6:	4638      	mov	r0, r7
 8004af8:	f7ff ffc2 	bl	8004a80 <sbrk_aligned>
 8004afc:	1c43      	adds	r3, r0, #1
 8004afe:	4604      	mov	r4, r0
 8004b00:	d14d      	bne.n	8004b9e <_malloc_r+0xde>
 8004b02:	6834      	ldr	r4, [r6, #0]
 8004b04:	4626      	mov	r6, r4
 8004b06:	2e00      	cmp	r6, #0
 8004b08:	d140      	bne.n	8004b8c <_malloc_r+0xcc>
 8004b0a:	6823      	ldr	r3, [r4, #0]
 8004b0c:	4631      	mov	r1, r6
 8004b0e:	4638      	mov	r0, r7
 8004b10:	eb04 0803 	add.w	r8, r4, r3
 8004b14:	f000 f848 	bl	8004ba8 <_sbrk_r>
 8004b18:	4580      	cmp	r8, r0
 8004b1a:	d13a      	bne.n	8004b92 <_malloc_r+0xd2>
 8004b1c:	6821      	ldr	r1, [r4, #0]
 8004b1e:	3503      	adds	r5, #3
 8004b20:	1a6d      	subs	r5, r5, r1
 8004b22:	f025 0503 	bic.w	r5, r5, #3
 8004b26:	3508      	adds	r5, #8
 8004b28:	2d0c      	cmp	r5, #12
 8004b2a:	bf38      	it	cc
 8004b2c:	250c      	movcc	r5, #12
 8004b2e:	4638      	mov	r0, r7
 8004b30:	4629      	mov	r1, r5
 8004b32:	f7ff ffa5 	bl	8004a80 <sbrk_aligned>
 8004b36:	3001      	adds	r0, #1
 8004b38:	d02b      	beq.n	8004b92 <_malloc_r+0xd2>
 8004b3a:	6823      	ldr	r3, [r4, #0]
 8004b3c:	442b      	add	r3, r5
 8004b3e:	6023      	str	r3, [r4, #0]
 8004b40:	e00e      	b.n	8004b60 <_malloc_r+0xa0>
 8004b42:	6822      	ldr	r2, [r4, #0]
 8004b44:	1b52      	subs	r2, r2, r5
 8004b46:	d41e      	bmi.n	8004b86 <_malloc_r+0xc6>
 8004b48:	2a0b      	cmp	r2, #11
 8004b4a:	d916      	bls.n	8004b7a <_malloc_r+0xba>
 8004b4c:	1961      	adds	r1, r4, r5
 8004b4e:	42a3      	cmp	r3, r4
 8004b50:	6025      	str	r5, [r4, #0]
 8004b52:	bf18      	it	ne
 8004b54:	6059      	strne	r1, [r3, #4]
 8004b56:	6863      	ldr	r3, [r4, #4]
 8004b58:	bf08      	it	eq
 8004b5a:	6031      	streq	r1, [r6, #0]
 8004b5c:	5162      	str	r2, [r4, r5]
 8004b5e:	604b      	str	r3, [r1, #4]
 8004b60:	4638      	mov	r0, r7
 8004b62:	f104 060b 	add.w	r6, r4, #11
 8004b66:	f000 f835 	bl	8004bd4 <__malloc_unlock>
 8004b6a:	f026 0607 	bic.w	r6, r6, #7
 8004b6e:	1d23      	adds	r3, r4, #4
 8004b70:	1af2      	subs	r2, r6, r3
 8004b72:	d0b6      	beq.n	8004ae2 <_malloc_r+0x22>
 8004b74:	1b9b      	subs	r3, r3, r6
 8004b76:	50a3      	str	r3, [r4, r2]
 8004b78:	e7b3      	b.n	8004ae2 <_malloc_r+0x22>
 8004b7a:	6862      	ldr	r2, [r4, #4]
 8004b7c:	42a3      	cmp	r3, r4
 8004b7e:	bf0c      	ite	eq
 8004b80:	6032      	streq	r2, [r6, #0]
 8004b82:	605a      	strne	r2, [r3, #4]
 8004b84:	e7ec      	b.n	8004b60 <_malloc_r+0xa0>
 8004b86:	4623      	mov	r3, r4
 8004b88:	6864      	ldr	r4, [r4, #4]
 8004b8a:	e7b2      	b.n	8004af2 <_malloc_r+0x32>
 8004b8c:	4634      	mov	r4, r6
 8004b8e:	6876      	ldr	r6, [r6, #4]
 8004b90:	e7b9      	b.n	8004b06 <_malloc_r+0x46>
 8004b92:	230c      	movs	r3, #12
 8004b94:	4638      	mov	r0, r7
 8004b96:	603b      	str	r3, [r7, #0]
 8004b98:	f000 f81c 	bl	8004bd4 <__malloc_unlock>
 8004b9c:	e7a1      	b.n	8004ae2 <_malloc_r+0x22>
 8004b9e:	6025      	str	r5, [r4, #0]
 8004ba0:	e7de      	b.n	8004b60 <_malloc_r+0xa0>
 8004ba2:	bf00      	nop
 8004ba4:	20000e40 	.word	0x20000e40

08004ba8 <_sbrk_r>:
 8004ba8:	b538      	push	{r3, r4, r5, lr}
 8004baa:	2300      	movs	r3, #0
 8004bac:	4d05      	ldr	r5, [pc, #20]	; (8004bc4 <_sbrk_r+0x1c>)
 8004bae:	4604      	mov	r4, r0
 8004bb0:	4608      	mov	r0, r1
 8004bb2:	602b      	str	r3, [r5, #0]
 8004bb4:	f7fc f81c 	bl	8000bf0 <_sbrk>
 8004bb8:	1c43      	adds	r3, r0, #1
 8004bba:	d102      	bne.n	8004bc2 <_sbrk_r+0x1a>
 8004bbc:	682b      	ldr	r3, [r5, #0]
 8004bbe:	b103      	cbz	r3, 8004bc2 <_sbrk_r+0x1a>
 8004bc0:	6023      	str	r3, [r4, #0]
 8004bc2:	bd38      	pop	{r3, r4, r5, pc}
 8004bc4:	20000e48 	.word	0x20000e48

08004bc8 <__malloc_lock>:
 8004bc8:	4801      	ldr	r0, [pc, #4]	; (8004bd0 <__malloc_lock+0x8>)
 8004bca:	f000 b809 	b.w	8004be0 <__retarget_lock_acquire_recursive>
 8004bce:	bf00      	nop
 8004bd0:	20000e4c 	.word	0x20000e4c

08004bd4 <__malloc_unlock>:
 8004bd4:	4801      	ldr	r0, [pc, #4]	; (8004bdc <__malloc_unlock+0x8>)
 8004bd6:	f000 b804 	b.w	8004be2 <__retarget_lock_release_recursive>
 8004bda:	bf00      	nop
 8004bdc:	20000e4c 	.word	0x20000e4c

08004be0 <__retarget_lock_acquire_recursive>:
 8004be0:	4770      	bx	lr

08004be2 <__retarget_lock_release_recursive>:
 8004be2:	4770      	bx	lr

08004be4 <_init>:
 8004be4:	b5f8      	push	{r3, r4, r5, r6, r7, lr}
 8004be6:	bf00      	nop
 8004be8:	bcf8      	pop	{r3, r4, r5, r6, r7}
 8004bea:	bc08      	pop	{r3}
 8004bec:	469e      	mov	lr, r3
 8004bee:	4770      	bx	lr

08004bf0 <_fini>:
 8004bf0:	b5f8      	push	{r3, r4, r5, r6, r7, lr}
 8004bf2:	bf00      	nop
 8004bf4:	bcf8      	pop	{r3, r4, r5, r6, r7}
 8004bf6:	bc08      	pop	{r3}
 8004bf8:	469e      	mov	lr, r3
 8004bfa:	4770      	bx	lr
